
dpasi001_final_project.elf:     file format elf32-avr

Sections:
Idx Name          Size      VMA       LMA       File off  Algn
  0 .text         00005c96  00000000  00000000  00000094  2**1
                  CONTENTS, ALLOC, LOAD, READONLY, CODE
  1 .data         000000f2  00800060  00005c96  00005d2a  2**0
                  CONTENTS, ALLOC, LOAD, DATA
  2 .bss          0000038d  00800152  00800152  00005e1c  2**0
                  ALLOC
  3 .stab         000007bc  00000000  00000000  00005e1c  2**2
                  CONTENTS, READONLY, DEBUGGING
  4 .stabstr      0000014d  00000000  00000000  000065d8  2**0
                  CONTENTS, READONLY, DEBUGGING
  5 .debug_aranges 00000178  00000000  00000000  00006728  2**3
                  CONTENTS, READONLY, DEBUGGING
  6 .debug_info   000009c2  00000000  00000000  000068a0  2**0
                  CONTENTS, READONLY, DEBUGGING
  7 .debug_abbrev 00000195  00000000  00000000  00007262  2**0
                  CONTENTS, READONLY, DEBUGGING
  8 .debug_line   0000067e  00000000  00000000  000073f7  2**0
                  CONTENTS, READONLY, DEBUGGING
  9 .debug_frame  00000088  00000000  00000000  00007a78  2**2
                  CONTENTS, READONLY, DEBUGGING
 10 .debug_str    00000096  00000000  00000000  00007b00  2**0
                  CONTENTS, READONLY, DEBUGGING
 11 .debug_loc    00000167  00000000  00000000  00007b96  2**0
                  CONTENTS, READONLY, DEBUGGING
 12 .debug_ranges 00000028  00000000  00000000  00007cfd  2**0
                  CONTENTS, READONLY, DEBUGGING

Disassembly of section .text:

00000000 <__vectors>:
       0:	0c 94 0c 02 	jmp	0x418	; 0x418 <__ctors_end>
       4:	0c 94 29 02 	jmp	0x452	; 0x452 <__bad_interrupt>
       8:	0c 94 29 02 	jmp	0x452	; 0x452 <__bad_interrupt>
       c:	0c 94 29 02 	jmp	0x452	; 0x452 <__bad_interrupt>
      10:	0c 94 29 02 	jmp	0x452	; 0x452 <__bad_interrupt>
      14:	0c 94 29 02 	jmp	0x452	; 0x452 <__bad_interrupt>
      18:	0c 94 29 02 	jmp	0x452	; 0x452 <__bad_interrupt>
      1c:	0c 94 29 02 	jmp	0x452	; 0x452 <__bad_interrupt>
      20:	0c 94 29 02 	jmp	0x452	; 0x452 <__bad_interrupt>
      24:	0c 94 29 02 	jmp	0x452	; 0x452 <__bad_interrupt>
      28:	0c 94 77 09 	jmp	0x12ee	; 0x12ee <__vector_10>
      2c:	0c 94 29 02 	jmp	0x452	; 0x452 <__bad_interrupt>
      30:	0c 94 29 02 	jmp	0x452	; 0x452 <__bad_interrupt>
      34:	0c 94 29 02 	jmp	0x452	; 0x452 <__bad_interrupt>
      38:	0c 94 29 02 	jmp	0x452	; 0x452 <__bad_interrupt>
      3c:	0c 94 29 02 	jmp	0x452	; 0x452 <__bad_interrupt>
      40:	0c 94 29 02 	jmp	0x452	; 0x452 <__bad_interrupt>
      44:	0c 94 29 02 	jmp	0x452	; 0x452 <__bad_interrupt>
      48:	0c 94 29 02 	jmp	0x452	; 0x452 <__bad_interrupt>
      4c:	0c 94 29 02 	jmp	0x452	; 0x452 <__bad_interrupt>
      50:	0c 94 29 02 	jmp	0x452	; 0x452 <__bad_interrupt>

00000054 <cf>:
      54:	3a 09 00 09 3d 0e 3a 09 3a 04 3f 09 3a 09 38 09     :...=.:.:.?.:.8.
      64:	3a 09 00 09 41 0e 3a 09 3a 04 42 09 41 09 3d 09     :...A.:.:.B.A.=.
      74:	3a 09 41 09 46 09 3a 04 38 09 38 04 35 09 3c 09     :.A.F.:.8.8.5.<.
      84:	3a 4c 00 1c                                         :L..

00000088 <mario_underground>:
      88:	1c 06 28 06 19 06 25 06 1a 06 26 06 00 0c 00 30     ..(...%...&....0
      98:	1c 06 28 06 19 06 25 06 1a 06 26 06 00 0c 00 30     ..(...%...&....0
      a8:	15 06 21 06 12 06 1e 06 13 06 1f 06 00 0c 00 30     ..!............0
      b8:	15 06 21 06 12 06 1e 06 13 06 1f 06 00 0c 00 0c     ..!.............
      c8:	1f 04 1e 04 1d 04 1c 09 00 03 1f 09 00 03 1e 09     ................
      d8:	00 03 18 09 00 03 1a 09 00 03 1d 09 00 03 1c 04     ................
      e8:	22 04 21 04 20 04 26 04 25 04 24 08 1f 08 1b 08     ".!. .&.%.$.....
      f8:	1a 08 19 08 18 08 ff 60                             .......`

00000100 <mario_castle>:
     100:	36 03 2f 03 35 03 2f 03 34 03 2f 03 29 03 2f 03     6./.5./.4./.)./.
     110:	36 03 2f 03 37 03 2f 03 36 03 2f 03 35 03 2f 03     6./.7./.6./.5./.
     120:	36 03 2f 03 35 03 2f 03 34 03 2f 03 29 03 2f 03     6./.5./.4./.)./.
     130:	36 03 2f 03 37 03 2f 03 36 03 2f 03 35 03 2f 03     6./.7./.6./.5./.
     140:	35 03 2e 03 34 03 2e 03 35 03 2e 03 36 03 2e 03     5...4...5...6...
     150:	35 03 2e 03 36 03 2e 03 35 03 2e 03 34 03 2e 03     5...6...5...4...
     160:	34 03 2e 03 34 03 2e 03 34 03 2e 03 34 03 2e 03     4...4...4...4...
     170:	34 03 2e 03 34 03 2e 03 34 03 2e 03 34 03 2e 03     4...4...4...4...
     180:	39 03 32 03 3a 03 32 03 39 03 32 03 38 03 32 03     9.2.:.2.9.2.8.2.
     190:	39 03 32 03 38 03 32 03 37 03 32 03 38 03 32 03     9.2.8.2.7.2.8.2.
     1a0:	39 03 32 03 3a 03 32 03 39 03 32 03 38 03 32 03     9.2.:.2.9.2.8.2.
     1b0:	39 03 32 03 38 03 32 03 37 03 32 03 38 03 32 03     9.2.8.2.7.2.8.2.

000001c0 <mario_main_song>:
     1c0:	38 06 38 06 00 06 38 06 00 06 34 06 38 0c 3b 0c     8.8...8...4.8.;.
     1d0:	00 0c 2f 0c 00 0c 34 12 2f 06 00 0c 2c 12 31 0c     ../...4./...,.1.
     1e0:	33 0c 32 06 31 0c 2f 08 38 08 3b 08 3d 0c 39 06     3.2.1./.8.;.=.9.
     1f0:	3b 06 00 06 38 0c 34 06 36 06 33 0c 00 06 34 12     ;...8.4.6.3...4.
     200:	2f 06 00 0c 2a 12 31 0c 33 0c 32 06 31 0c 2f 08     /...*.1.3.2.1./.
     210:	38 08 3b 08 3d 0c 39 06 3b 06 00 06 38 0c 34 06     8.;.=.9.;...8.4.
     220:	36 06 33 0c 00 06 00 0c 3b 06 3a 06 39 06 37 0c     6.3.....;.:.9.7.
     230:	38 06 00 06 30 06 31 06 34 06 00 06 31 06 34 06     8...0.1.4...1.4.
     240:	36 06 00 0c 3b 06 3a 06 39 06 37 0c 38 06 00 06     6...;.:.9.7.8...
     250:	40 06 00 06 40 06 40 12 00 12 3b 06 3a 06 39 06     @...@.@...;.:.9.
     260:	37 0c 38 06 00 06 30 06 31 06 34 06 00 06 31 06     7.8...0.1.4...1.
     270:	34 06 36 06 00 0c 37 0c 00 06 36 0c 00 06 34 12     4.6...7...6...4.
     280:	00 12 00 0c 3b 06 3a 06 39 06 37 0c 38 06 00 06     ....;.:.9.7.8...
     290:	30 06 31 06 34 06 00 06 31 06 34 06 36 06 00 0c     0.1.4...1.4.6...
     2a0:	3b 06 3a 06 39 06 37 0c 38 06 00 06 40 06 00 06     ;.:.9.7.8...@...
     2b0:	40 06 40 12 00 12 3b 06 3a 06 39 06 37 0c 38 06     @.@...;.:.9.7.8.
     2c0:	00 06 30 06 31 06 34 06 00 06 31 06 34 06 36 06     ..0.1.4...1.4.6.
     2d0:	00 0c 37 0c 00 06 36 0c 00 06 34 12 00 12 34 06     ..7...6...4...4.
     2e0:	34 0c 34 06 00 06 34 06 36 0c 38 06 34 0c 31 06     4.4...4.6.8.4.1.
     2f0:	2f 30 34 06 34 0c 34 06 00 06 34 06 36 06 38 06     /04.4.4...4.6.8.
     300:	00 60 34 06 34 0c 34 06 00 06 34 06 36 0c 38 06     .`4.4.4...4.6.8.
     310:	34 0c 31 06 2f 30 38 06 38 06 00 06 38 06 00 06     4.1./08.8...8...
     320:	34 06 38 06 3b 0c 00 0c 2f 0c 00 0c 34 12 2f 06     4.8.;.../...4./.
     330:	00 06 2c 12 31 0c 33 0c 32 06 31 0c 2f 08 38 08     ..,.1.3.2.1./.8.
     340:	3b 08 3d 0c 39 06 3b 06 00 06 38 0c 34 06 36 06     ;.=.9.;...8.4.6.
     350:	33 0c 00 06 34 12 2f 06 00 0c 2c 12 31 0c 33 0c     3...4./...,.1.3.
     360:	32 06 31 0c 2f 08 38 08 3b 08 3d 0c 39 06 3b 06     2.1./.8.;.=.9.;.
     370:	00 06 38 0c 34 06 36 06 33 0c 00 06 38 06 34 0c     ..8.4.6.3...8.4.
     380:	2f 06 00 0c 30 0c 31 06 39 0c 39 06 31 12 00 06     /...0.1.9.9.1...
     390:	33 08 3d 08 3d 08 3d 08 3b 08 39 08 38 06 34 0c     3.=.=.=.;.9.8.4.
     3a0:	31 06 2f 12 00 06 38 06 34 0c 2f 06 00 0c 30 0c     1./...8.4./...0.
     3b0:	31 06 39 0c 39 06 31 30 33 08 39 08 39 08 39 08     1.9.9.103.9.9.9.
     3c0:	38 08 36 08 34 30 00 30 38 06 34 0c 2f 06 00 0c     8.6.40.08.4./...
     3d0:	30 0c 31 06 39 0c 39 06 31 12 00 06 33 08 3d 08     0.1.9.9.1...3.=.
     3e0:	3d 08 3d 08 3b 08 39 08 38 06 34 0c 31 06 2f 12     =.=.;.9.8.4.1./.
     3f0:	00 06 38 06 34 0c 2f 06 00 0c 30 0c 31 06 39 0c     ..8.4./...0.1.9.
     400:	39 06 31 30 33 08 39 08 39 08 39 08 38 08 36 08     9.103.9.9.9.8.6.
     410:	34 30 00 30 00 30                                   40.0.0

00000416 <nothing>:
     416:	00 03                                               ..

00000418 <__ctors_end>:
     418:	11 24       	eor	r1, r1
     41a:	1f be       	out	0x3f, r1	; 63
     41c:	cf e5       	ldi	r28, 0x5F	; 95
     41e:	d8 e0       	ldi	r29, 0x08	; 8
     420:	de bf       	out	0x3e, r29	; 62
     422:	cd bf       	out	0x3d, r28	; 61

00000424 <__do_copy_data>:
     424:	11 e0       	ldi	r17, 0x01	; 1
     426:	a0 e6       	ldi	r26, 0x60	; 96
     428:	b0 e0       	ldi	r27, 0x00	; 0
     42a:	e6 e9       	ldi	r30, 0x96	; 150
     42c:	fc e5       	ldi	r31, 0x5C	; 92
     42e:	02 c0       	rjmp	.+4      	; 0x434 <__do_copy_data+0x10>
     430:	05 90       	lpm	r0, Z+
     432:	0d 92       	st	X+, r0
     434:	a2 35       	cpi	r26, 0x52	; 82
     436:	b1 07       	cpc	r27, r17
     438:	d9 f7       	brne	.-10     	; 0x430 <__do_copy_data+0xc>

0000043a <__do_clear_bss>:
     43a:	14 e0       	ldi	r17, 0x04	; 4
     43c:	a2 e5       	ldi	r26, 0x52	; 82
     43e:	b1 e0       	ldi	r27, 0x01	; 1
     440:	01 c0       	rjmp	.+2      	; 0x444 <.do_clear_bss_start>

00000442 <.do_clear_bss_loop>:
     442:	1d 92       	st	X+, r1

00000444 <.do_clear_bss_start>:
     444:	af 3d       	cpi	r26, 0xDF	; 223
     446:	b1 07       	cpc	r27, r17
     448:	e1 f7       	brne	.-8      	; 0x442 <.do_clear_bss_loop>
     44a:	0e 94 70 2a 	call	0x54e0	; 0x54e0 <main>
     44e:	0c 94 49 2e 	jmp	0x5c92	; 0x5c92 <_exit>

00000452 <__bad_interrupt>:
     452:	0c 94 00 00 	jmp	0	; 0x0 <__vectors>

00000456 <SNES_controller_tick>:
     456:	80 91 7d 04 	lds	r24, 0x047D
     45a:	82 60       	ori	r24, 0x02	; 2
     45c:	88 bb       	out	0x18, r24	; 24
     45e:	8d 7f       	andi	r24, 0xFD	; 253
     460:	80 93 7d 04 	sts	0x047D, r24
     464:	88 bb       	out	0x18, r24	; 24
     466:	10 92 75 04 	sts	0x0475, r1
     46a:	10 92 74 04 	sts	0x0474, r1
     46e:	21 e0       	ldi	r18, 0x01	; 1
     470:	30 e0       	ldi	r19, 0x00	; 0
     472:	b0 9b       	sbis	0x16, 0	; 22
     474:	02 c0       	rjmp	.+4      	; 0x47a <SNES_controller_tick+0x24>
     476:	20 e0       	ldi	r18, 0x00	; 0
     478:	30 e0       	ldi	r19, 0x00	; 0
     47a:	84 60       	ori	r24, 0x04	; 4
     47c:	88 bb       	out	0x18, r24	; 24
     47e:	48 2f       	mov	r20, r24
     480:	4b 7f       	andi	r20, 0xFB	; 251
     482:	40 93 7d 04 	sts	0x047D, r20
     486:	48 bb       	out	0x18, r20	; 24
     488:	22 0f       	add	r18, r18
     48a:	33 1f       	adc	r19, r19
     48c:	30 93 75 04 	sts	0x0475, r19
     490:	20 93 74 04 	sts	0x0474, r18
     494:	81 e0       	ldi	r24, 0x01	; 1
     496:	90 e0       	ldi	r25, 0x00	; 0
     498:	b0 9b       	sbis	0x16, 0	; 22
     49a:	02 c0       	rjmp	.+4      	; 0x4a0 <SNES_controller_tick+0x4a>
     49c:	80 e0       	ldi	r24, 0x00	; 0
     49e:	90 e0       	ldi	r25, 0x00	; 0
     4a0:	82 2b       	or	r24, r18
     4a2:	93 2b       	or	r25, r19
     4a4:	24 2f       	mov	r18, r20
     4a6:	24 60       	ori	r18, 0x04	; 4
     4a8:	28 bb       	out	0x18, r18	; 24
     4aa:	2b 7f       	andi	r18, 0xFB	; 251
     4ac:	20 93 7d 04 	sts	0x047D, r18
     4b0:	28 bb       	out	0x18, r18	; 24
     4b2:	88 0f       	add	r24, r24
     4b4:	99 1f       	adc	r25, r25
     4b6:	90 93 75 04 	sts	0x0475, r25
     4ba:	80 93 74 04 	sts	0x0474, r24
     4be:	e1 e0       	ldi	r30, 0x01	; 1
     4c0:	f0 e0       	ldi	r31, 0x00	; 0
     4c2:	b0 9b       	sbis	0x16, 0	; 22
     4c4:	02 c0       	rjmp	.+4      	; 0x4ca <SNES_controller_tick+0x74>
     4c6:	e0 e0       	ldi	r30, 0x00	; 0
     4c8:	f0 e0       	ldi	r31, 0x00	; 0
     4ca:	e8 2b       	or	r30, r24
     4cc:	f9 2b       	or	r31, r25
     4ce:	82 2f       	mov	r24, r18
     4d0:	84 60       	ori	r24, 0x04	; 4
     4d2:	88 bb       	out	0x18, r24	; 24
     4d4:	8b 7f       	andi	r24, 0xFB	; 251
     4d6:	80 93 7d 04 	sts	0x047D, r24
     4da:	88 bb       	out	0x18, r24	; 24
     4dc:	ee 0f       	add	r30, r30
     4de:	ff 1f       	adc	r31, r31
     4e0:	f0 93 75 04 	sts	0x0475, r31
     4e4:	e0 93 74 04 	sts	0x0474, r30
     4e8:	61 e0       	ldi	r22, 0x01	; 1
     4ea:	70 e0       	ldi	r23, 0x00	; 0
     4ec:	b0 9b       	sbis	0x16, 0	; 22
     4ee:	02 c0       	rjmp	.+4      	; 0x4f4 <SNES_controller_tick+0x9e>
     4f0:	60 e0       	ldi	r22, 0x00	; 0
     4f2:	70 e0       	ldi	r23, 0x00	; 0
     4f4:	6e 2b       	or	r22, r30
     4f6:	7f 2b       	or	r23, r31
     4f8:	84 60       	ori	r24, 0x04	; 4
     4fa:	88 bb       	out	0x18, r24	; 24
     4fc:	8b 7f       	andi	r24, 0xFB	; 251
     4fe:	80 93 7d 04 	sts	0x047D, r24
     502:	88 bb       	out	0x18, r24	; 24
     504:	66 0f       	add	r22, r22
     506:	77 1f       	adc	r23, r23
     508:	70 93 75 04 	sts	0x0475, r23
     50c:	60 93 74 04 	sts	0x0474, r22
     510:	41 e0       	ldi	r20, 0x01	; 1
     512:	50 e0       	ldi	r21, 0x00	; 0
     514:	b0 9b       	sbis	0x16, 0	; 22
     516:	02 c0       	rjmp	.+4      	; 0x51c <SNES_controller_tick+0xc6>
     518:	40 e0       	ldi	r20, 0x00	; 0
     51a:	50 e0       	ldi	r21, 0x00	; 0
     51c:	46 2b       	or	r20, r22
     51e:	57 2b       	or	r21, r23
     520:	84 60       	ori	r24, 0x04	; 4
     522:	88 bb       	out	0x18, r24	; 24
     524:	8b 7f       	andi	r24, 0xFB	; 251
     526:	80 93 7d 04 	sts	0x047D, r24
     52a:	88 bb       	out	0x18, r24	; 24
     52c:	44 0f       	add	r20, r20
     52e:	55 1f       	adc	r21, r21
     530:	50 93 75 04 	sts	0x0475, r21
     534:	40 93 74 04 	sts	0x0474, r20
     538:	21 e0       	ldi	r18, 0x01	; 1
     53a:	30 e0       	ldi	r19, 0x00	; 0
     53c:	b0 9b       	sbis	0x16, 0	; 22
     53e:	02 c0       	rjmp	.+4      	; 0x544 <SNES_controller_tick+0xee>
     540:	20 e0       	ldi	r18, 0x00	; 0
     542:	30 e0       	ldi	r19, 0x00	; 0
     544:	24 2b       	or	r18, r20
     546:	35 2b       	or	r19, r21
     548:	48 2f       	mov	r20, r24
     54a:	44 60       	ori	r20, 0x04	; 4
     54c:	48 bb       	out	0x18, r20	; 24
     54e:	4b 7f       	andi	r20, 0xFB	; 251
     550:	40 93 7d 04 	sts	0x047D, r20
     554:	48 bb       	out	0x18, r20	; 24
     556:	22 0f       	add	r18, r18
     558:	33 1f       	adc	r19, r19
     55a:	30 93 75 04 	sts	0x0475, r19
     55e:	20 93 74 04 	sts	0x0474, r18
     562:	81 e0       	ldi	r24, 0x01	; 1
     564:	90 e0       	ldi	r25, 0x00	; 0
     566:	b0 9b       	sbis	0x16, 0	; 22
     568:	02 c0       	rjmp	.+4      	; 0x56e <SNES_controller_tick+0x118>
     56a:	80 e0       	ldi	r24, 0x00	; 0
     56c:	90 e0       	ldi	r25, 0x00	; 0
     56e:	82 2b       	or	r24, r18
     570:	93 2b       	or	r25, r19
     572:	44 60       	ori	r20, 0x04	; 4
     574:	48 bb       	out	0x18, r20	; 24
     576:	4b 7f       	andi	r20, 0xFB	; 251
     578:	40 93 7d 04 	sts	0x047D, r20
     57c:	48 bb       	out	0x18, r20	; 24
     57e:	88 0f       	add	r24, r24
     580:	99 1f       	adc	r25, r25
     582:	90 93 75 04 	sts	0x0475, r25
     586:	80 93 74 04 	sts	0x0474, r24
     58a:	21 e0       	ldi	r18, 0x01	; 1
     58c:	30 e0       	ldi	r19, 0x00	; 0
     58e:	b0 9b       	sbis	0x16, 0	; 22
     590:	02 c0       	rjmp	.+4      	; 0x596 <SNES_controller_tick+0x140>
     592:	20 e0       	ldi	r18, 0x00	; 0
     594:	30 e0       	ldi	r19, 0x00	; 0
     596:	82 2b       	or	r24, r18
     598:	93 2b       	or	r25, r19
     59a:	90 93 75 04 	sts	0x0475, r25
     59e:	80 93 74 04 	sts	0x0474, r24
     5a2:	44 60       	ori	r20, 0x04	; 4
     5a4:	48 bb       	out	0x18, r20	; 24
     5a6:	4b 7f       	andi	r20, 0xFB	; 251
     5a8:	40 93 7d 04 	sts	0x047D, r20
     5ac:	48 bb       	out	0x18, r20	; 24
     5ae:	80 e0       	ldi	r24, 0x00	; 0
     5b0:	08 95       	ret

000005b2 <LT_Tick>:
     5b2:	82 30       	cpi	r24, 0x02	; 2
     5b4:	e9 f0       	breq	.+58     	; 0x5f0 <LT_Tick+0x3e>
     5b6:	83 30       	cpi	r24, 0x03	; 3
     5b8:	30 f0       	brcs	.+12     	; 0x5c6 <LT_Tick+0x14>
     5ba:	84 30       	cpi	r24, 0x04	; 4
     5bc:	21 f1       	breq	.+72     	; 0x606 <LT_Tick+0x54>
     5be:	84 30       	cpi	r24, 0x04	; 4
     5c0:	50 f4       	brcc	.+20     	; 0x5d6 <LT_Tick+0x24>
     5c2:	84 e0       	ldi	r24, 0x04	; 4
     5c4:	08 95       	ret
     5c6:	88 23       	and	r24, r24
     5c8:	61 f0       	breq	.+24     	; 0x5e2 <LT_Tick+0x30>
     5ca:	81 30       	cpi	r24, 0x01	; 1
     5cc:	61 f0       	breq	.+24     	; 0x5e6 <LT_Tick+0x34>
     5ce:	10 92 65 01 	sts	0x0165, r1
     5d2:	80 e0       	ldi	r24, 0x00	; 0
     5d4:	08 95       	ret
     5d6:	85 30       	cpi	r24, 0x05	; 5
     5d8:	d1 f7       	brne	.-12     	; 0x5ce <LT_Tick+0x1c>
     5da:	90 91 64 01 	lds	r25, 0x0164
     5de:	99 23       	and	r25, r25
     5e0:	89 f7       	brne	.-30     	; 0x5c4 <LT_Tick+0x12>
     5e2:	81 e0       	ldi	r24, 0x01	; 1
     5e4:	08 95       	ret
     5e6:	90 91 66 01 	lds	r25, 0x0166
     5ea:	99 23       	and	r25, r25
     5ec:	81 f4       	brne	.+32     	; 0x60e <LT_Tick+0x5c>
     5ee:	08 95       	ret
     5f0:	90 91 64 01 	lds	r25, 0x0164
     5f4:	99 23       	and	r25, r25
     5f6:	31 f3       	breq	.-52     	; 0x5c4 <LT_Tick+0x12>
     5f8:	10 92 64 01 	sts	0x0164, r1
     5fc:	81 e0       	ldi	r24, 0x01	; 1
     5fe:	80 93 65 01 	sts	0x0165, r24
     602:	83 e0       	ldi	r24, 0x03	; 3
     604:	08 95       	ret
     606:	10 92 65 01 	sts	0x0165, r1
     60a:	85 e0       	ldi	r24, 0x05	; 5
     60c:	08 95       	ret
     60e:	82 e0       	ldi	r24, 0x02	; 2
     610:	08 95       	ret

00000612 <LED_Matrix>:
     612:	ff 92       	push	r15
     614:	0f 93       	push	r16
     616:	1f 93       	push	r17
     618:	cf 93       	push	r28
     61a:	df 93       	push	r29
     61c:	f0 90 52 03 	lds	r15, 0x0352
     620:	28 e0       	ldi	r18, 0x08	; 8
     622:	f2 16       	cp	r15, r18
     624:	09 f4       	brne	.+2      	; 0x628 <LED_Matrix+0x16>
     626:	46 c2       	rjmp	.+1164   	; 0xab4 <__stack+0x255>
     628:	1f 2d       	mov	r17, r15
     62a:	10 95       	com	r17
     62c:	17 70       	andi	r17, 0x07	; 7
     62e:	10 93 54 03 	sts	0x0354, r17
     632:	60 91 53 03 	lds	r22, 0x0353
     636:	21 2f       	mov	r18, r17
     638:	30 e0       	ldi	r19, 0x00	; 0
     63a:	70 e0       	ldi	r23, 0x00	; 0
     63c:	ab 01       	movw	r20, r22
     63e:	47 70       	andi	r20, 0x07	; 7
     640:	50 70       	andi	r21, 0x00	; 0
     642:	cb 01       	movw	r24, r22
     644:	01 96       	adiw	r24, 0x01	; 1
     646:	87 70       	andi	r24, 0x07	; 7
     648:	90 70       	andi	r25, 0x00	; 0
     64a:	d9 01       	movw	r26, r18
     64c:	aa 0f       	add	r26, r26
     64e:	bb 1f       	adc	r27, r27
     650:	a2 0f       	add	r26, r18
     652:	b3 1f       	adc	r27, r19
     654:	aa 0f       	add	r26, r26
     656:	bb 1f       	adc	r27, r27
     658:	aa 0f       	add	r26, r26
     65a:	bb 1f       	adc	r27, r27
     65c:	aa 0f       	add	r26, r26
     65e:	bb 1f       	adc	r27, r27
     660:	a6 5a       	subi	r26, 0xA6	; 166
     662:	bc 4f       	sbci	r27, 0xFC	; 252
     664:	55 96       	adiw	r26, 0x15	; 21
     666:	ec 91       	ld	r30, X
     668:	55 97       	sbiw	r26, 0x15	; 21
     66a:	f0 e0       	ldi	r31, 0x00	; 0
     66c:	ee 0f       	add	r30, r30
     66e:	ff 1f       	adc	r31, r31
     670:	ee 0f       	add	r30, r30
     672:	ff 1f       	adc	r31, r31
     674:	ee 0f       	add	r30, r30
     676:	ff 1f       	adc	r31, r31
     678:	e4 0f       	add	r30, r20
     67a:	f5 1f       	adc	r31, r21
     67c:	eb 50       	subi	r30, 0x0B	; 11
     67e:	ff 4f       	sbci	r31, 0xFF	; 255
     680:	30 81       	ld	r19, Z
     682:	52 96       	adiw	r26, 0x12	; 18
     684:	ec 91       	ld	r30, X
     686:	52 97       	sbiw	r26, 0x12	; 18
     688:	f0 e0       	ldi	r31, 0x00	; 0
     68a:	ee 0f       	add	r30, r30
     68c:	ff 1f       	adc	r31, r31
     68e:	ee 0f       	add	r30, r30
     690:	ff 1f       	adc	r31, r31
     692:	ee 0f       	add	r30, r30
     694:	ff 1f       	adc	r31, r31
     696:	e8 0f       	add	r30, r24
     698:	f9 1f       	adc	r31, r25
     69a:	eb 50       	subi	r30, 0x0B	; 11
     69c:	ff 4f       	sbci	r31, 0xFF	; 255
     69e:	20 81       	ld	r18, Z
     6a0:	22 0f       	add	r18, r18
     6a2:	23 2b       	or	r18, r19
     6a4:	56 96       	adiw	r26, 0x16	; 22
     6a6:	ec 91       	ld	r30, X
     6a8:	56 97       	sbiw	r26, 0x16	; 22
     6aa:	f0 e0       	ldi	r31, 0x00	; 0
     6ac:	ee 0f       	add	r30, r30
     6ae:	ff 1f       	adc	r31, r31
     6b0:	ee 0f       	add	r30, r30
     6b2:	ff 1f       	adc	r31, r31
     6b4:	ee 0f       	add	r30, r30
     6b6:	ff 1f       	adc	r31, r31
     6b8:	e4 0f       	add	r30, r20
     6ba:	f5 1f       	adc	r31, r21
     6bc:	eb 50       	subi	r30, 0x0B	; 11
     6be:	ff 4f       	sbci	r31, 0xFF	; 255
     6c0:	c0 81       	ld	r28, Z
     6c2:	53 96       	adiw	r26, 0x13	; 19
     6c4:	ec 91       	ld	r30, X
     6c6:	53 97       	sbiw	r26, 0x13	; 19
     6c8:	f0 e0       	ldi	r31, 0x00	; 0
     6ca:	ee 0f       	add	r30, r30
     6cc:	ff 1f       	adc	r31, r31
     6ce:	ee 0f       	add	r30, r30
     6d0:	ff 1f       	adc	r31, r31
     6d2:	ee 0f       	add	r30, r30
     6d4:	ff 1f       	adc	r31, r31
     6d6:	e8 0f       	add	r30, r24
     6d8:	f9 1f       	adc	r31, r25
     6da:	eb 50       	subi	r30, 0x0B	; 11
     6dc:	ff 4f       	sbci	r31, 0xFF	; 255
     6de:	30 81       	ld	r19, Z
     6e0:	33 0f       	add	r19, r19
     6e2:	3c 2b       	or	r19, r28
     6e4:	57 96       	adiw	r26, 0x17	; 23
     6e6:	ec 91       	ld	r30, X
     6e8:	57 97       	sbiw	r26, 0x17	; 23
     6ea:	f0 e0       	ldi	r31, 0x00	; 0
     6ec:	ee 0f       	add	r30, r30
     6ee:	ff 1f       	adc	r31, r31
     6f0:	ee 0f       	add	r30, r30
     6f2:	ff 1f       	adc	r31, r31
     6f4:	ee 0f       	add	r30, r30
     6f6:	ff 1f       	adc	r31, r31
     6f8:	e4 0f       	add	r30, r20
     6fa:	f5 1f       	adc	r31, r21
     6fc:	eb 50       	subi	r30, 0x0B	; 11
     6fe:	ff 4f       	sbci	r31, 0xFF	; 255
     700:	40 81       	ld	r20, Z
     702:	54 96       	adiw	r26, 0x14	; 20
     704:	ec 91       	ld	r30, X
     706:	54 97       	sbiw	r26, 0x14	; 20
     708:	f0 e0       	ldi	r31, 0x00	; 0
     70a:	ee 0f       	add	r30, r30
     70c:	ff 1f       	adc	r31, r31
     70e:	ee 0f       	add	r30, r30
     710:	ff 1f       	adc	r31, r31
     712:	ee 0f       	add	r30, r30
     714:	ff 1f       	adc	r31, r31
     716:	e8 0f       	add	r30, r24
     718:	f9 1f       	adc	r31, r25
     71a:	eb 50       	subi	r30, 0x0B	; 11
     71c:	ff 4f       	sbci	r31, 0xFF	; 255
     71e:	50 81       	ld	r21, Z
     720:	55 0f       	add	r21, r21
     722:	54 2b       	or	r21, r20
     724:	cb 01       	movw	r24, r22
     726:	02 96       	adiw	r24, 0x02	; 2
     728:	87 70       	andi	r24, 0x07	; 7
     72a:	90 70       	andi	r25, 0x00	; 0
     72c:	1f 96       	adiw	r26, 0x0f	; 15
     72e:	ec 91       	ld	r30, X
     730:	1f 97       	sbiw	r26, 0x0f	; 15
     732:	f0 e0       	ldi	r31, 0x00	; 0
     734:	ee 0f       	add	r30, r30
     736:	ff 1f       	adc	r31, r31
     738:	ee 0f       	add	r30, r30
     73a:	ff 1f       	adc	r31, r31
     73c:	ee 0f       	add	r30, r30
     73e:	ff 1f       	adc	r31, r31
     740:	e8 0f       	add	r30, r24
     742:	f9 1f       	adc	r31, r25
     744:	eb 50       	subi	r30, 0x0B	; 11
     746:	ff 4f       	sbci	r31, 0xFF	; 255
     748:	40 81       	ld	r20, Z
     74a:	44 0f       	add	r20, r20
     74c:	44 0f       	add	r20, r20
     74e:	42 2b       	or	r20, r18
     750:	50 96       	adiw	r26, 0x10	; 16
     752:	ec 91       	ld	r30, X
     754:	50 97       	sbiw	r26, 0x10	; 16
     756:	f0 e0       	ldi	r31, 0x00	; 0
     758:	ee 0f       	add	r30, r30
     75a:	ff 1f       	adc	r31, r31
     75c:	ee 0f       	add	r30, r30
     75e:	ff 1f       	adc	r31, r31
     760:	ee 0f       	add	r30, r30
     762:	ff 1f       	adc	r31, r31
     764:	e8 0f       	add	r30, r24
     766:	f9 1f       	adc	r31, r25
     768:	eb 50       	subi	r30, 0x0B	; 11
     76a:	ff 4f       	sbci	r31, 0xFF	; 255
     76c:	20 81       	ld	r18, Z
     76e:	22 0f       	add	r18, r18
     770:	22 0f       	add	r18, r18
     772:	23 2b       	or	r18, r19
     774:	51 96       	adiw	r26, 0x11	; 17
     776:	ec 91       	ld	r30, X
     778:	51 97       	sbiw	r26, 0x11	; 17
     77a:	f0 e0       	ldi	r31, 0x00	; 0
     77c:	ee 0f       	add	r30, r30
     77e:	ff 1f       	adc	r31, r31
     780:	ee 0f       	add	r30, r30
     782:	ff 1f       	adc	r31, r31
     784:	ee 0f       	add	r30, r30
     786:	ff 1f       	adc	r31, r31
     788:	e8 0f       	add	r30, r24
     78a:	f9 1f       	adc	r31, r25
     78c:	eb 50       	subi	r30, 0x0B	; 11
     78e:	ff 4f       	sbci	r31, 0xFF	; 255
     790:	00 81       	ld	r16, Z
     792:	00 0f       	add	r16, r16
     794:	00 0f       	add	r16, r16
     796:	05 2b       	or	r16, r21
     798:	cb 01       	movw	r24, r22
     79a:	03 96       	adiw	r24, 0x03	; 3
     79c:	87 70       	andi	r24, 0x07	; 7
     79e:	90 70       	andi	r25, 0x00	; 0
     7a0:	1c 96       	adiw	r26, 0x0c	; 12
     7a2:	ec 91       	ld	r30, X
     7a4:	1c 97       	sbiw	r26, 0x0c	; 12
     7a6:	f0 e0       	ldi	r31, 0x00	; 0
     7a8:	ee 0f       	add	r30, r30
     7aa:	ff 1f       	adc	r31, r31
     7ac:	ee 0f       	add	r30, r30
     7ae:	ff 1f       	adc	r31, r31
     7b0:	ee 0f       	add	r30, r30
     7b2:	ff 1f       	adc	r31, r31
     7b4:	e8 0f       	add	r30, r24
     7b6:	f9 1f       	adc	r31, r25
     7b8:	eb 50       	subi	r30, 0x0B	; 11
     7ba:	ff 4f       	sbci	r31, 0xFF	; 255
     7bc:	50 81       	ld	r21, Z
     7be:	55 0f       	add	r21, r21
     7c0:	55 0f       	add	r21, r21
     7c2:	55 0f       	add	r21, r21
     7c4:	54 2b       	or	r21, r20
     7c6:	1d 96       	adiw	r26, 0x0d	; 13
     7c8:	ec 91       	ld	r30, X
     7ca:	1d 97       	sbiw	r26, 0x0d	; 13
     7cc:	f0 e0       	ldi	r31, 0x00	; 0
     7ce:	ee 0f       	add	r30, r30
     7d0:	ff 1f       	adc	r31, r31
     7d2:	ee 0f       	add	r30, r30
     7d4:	ff 1f       	adc	r31, r31
     7d6:	ee 0f       	add	r30, r30
     7d8:	ff 1f       	adc	r31, r31
     7da:	e8 0f       	add	r30, r24
     7dc:	f9 1f       	adc	r31, r25
     7de:	eb 50       	subi	r30, 0x0B	; 11
     7e0:	ff 4f       	sbci	r31, 0xFF	; 255
     7e2:	30 81       	ld	r19, Z
     7e4:	33 0f       	add	r19, r19
     7e6:	33 0f       	add	r19, r19
     7e8:	33 0f       	add	r19, r19
     7ea:	32 2b       	or	r19, r18
     7ec:	1e 96       	adiw	r26, 0x0e	; 14
     7ee:	ec 91       	ld	r30, X
     7f0:	1e 97       	sbiw	r26, 0x0e	; 14
     7f2:	f0 e0       	ldi	r31, 0x00	; 0
     7f4:	ee 0f       	add	r30, r30
     7f6:	ff 1f       	adc	r31, r31
     7f8:	ee 0f       	add	r30, r30
     7fa:	ff 1f       	adc	r31, r31
     7fc:	ee 0f       	add	r30, r30
     7fe:	ff 1f       	adc	r31, r31
     800:	e8 0f       	add	r30, r24
     802:	f9 1f       	adc	r31, r25
     804:	eb 50       	subi	r30, 0x0B	; 11
     806:	ff 4f       	sbci	r31, 0xFF	; 255
     808:	c0 81       	ld	r28, Z
     80a:	cc 0f       	add	r28, r28
     80c:	cc 0f       	add	r28, r28
     80e:	cc 0f       	add	r28, r28
     810:	c0 2b       	or	r28, r16
     812:	cb 01       	movw	r24, r22
     814:	04 96       	adiw	r24, 0x04	; 4
     816:	87 70       	andi	r24, 0x07	; 7
     818:	90 70       	andi	r25, 0x00	; 0
     81a:	19 96       	adiw	r26, 0x09	; 9
     81c:	ec 91       	ld	r30, X
     81e:	19 97       	sbiw	r26, 0x09	; 9
     820:	f0 e0       	ldi	r31, 0x00	; 0
     822:	ee 0f       	add	r30, r30
     824:	ff 1f       	adc	r31, r31
     826:	ee 0f       	add	r30, r30
     828:	ff 1f       	adc	r31, r31
     82a:	ee 0f       	add	r30, r30
     82c:	ff 1f       	adc	r31, r31
     82e:	e8 0f       	add	r30, r24
     830:	f9 1f       	adc	r31, r25
     832:	eb 50       	subi	r30, 0x0B	; 11
     834:	ff 4f       	sbci	r31, 0xFF	; 255
     836:	40 81       	ld	r20, Z
     838:	42 95       	swap	r20
     83a:	40 7f       	andi	r20, 0xF0	; 240
     83c:	45 2b       	or	r20, r21
     83e:	1a 96       	adiw	r26, 0x0a	; 10
     840:	ec 91       	ld	r30, X
     842:	1a 97       	sbiw	r26, 0x0a	; 10
     844:	f0 e0       	ldi	r31, 0x00	; 0
     846:	ee 0f       	add	r30, r30
     848:	ff 1f       	adc	r31, r31
     84a:	ee 0f       	add	r30, r30
     84c:	ff 1f       	adc	r31, r31
     84e:	ee 0f       	add	r30, r30
     850:	ff 1f       	adc	r31, r31
     852:	e8 0f       	add	r30, r24
     854:	f9 1f       	adc	r31, r25
     856:	eb 50       	subi	r30, 0x0B	; 11
     858:	ff 4f       	sbci	r31, 0xFF	; 255
     85a:	20 81       	ld	r18, Z
     85c:	22 95       	swap	r18
     85e:	20 7f       	andi	r18, 0xF0	; 240
     860:	23 2b       	or	r18, r19
     862:	1b 96       	adiw	r26, 0x0b	; 11
     864:	ec 91       	ld	r30, X
     866:	1b 97       	sbiw	r26, 0x0b	; 11
     868:	f0 e0       	ldi	r31, 0x00	; 0
     86a:	ee 0f       	add	r30, r30
     86c:	ff 1f       	adc	r31, r31
     86e:	ee 0f       	add	r30, r30
     870:	ff 1f       	adc	r31, r31
     872:	ee 0f       	add	r30, r30
     874:	ff 1f       	adc	r31, r31
     876:	e8 0f       	add	r30, r24
     878:	f9 1f       	adc	r31, r25
     87a:	eb 50       	subi	r30, 0x0B	; 11
     87c:	ff 4f       	sbci	r31, 0xFF	; 255
     87e:	00 81       	ld	r16, Z
     880:	02 95       	swap	r16
     882:	00 7f       	andi	r16, 0xF0	; 240
     884:	0c 2b       	or	r16, r28
     886:	cb 01       	movw	r24, r22
     888:	05 96       	adiw	r24, 0x05	; 5
     88a:	87 70       	andi	r24, 0x07	; 7
     88c:	90 70       	andi	r25, 0x00	; 0
     88e:	16 96       	adiw	r26, 0x06	; 6
     890:	ec 91       	ld	r30, X
     892:	16 97       	sbiw	r26, 0x06	; 6
     894:	f0 e0       	ldi	r31, 0x00	; 0
     896:	ee 0f       	add	r30, r30
     898:	ff 1f       	adc	r31, r31
     89a:	ee 0f       	add	r30, r30
     89c:	ff 1f       	adc	r31, r31
     89e:	ee 0f       	add	r30, r30
     8a0:	ff 1f       	adc	r31, r31
     8a2:	e8 0f       	add	r30, r24
     8a4:	f9 1f       	adc	r31, r25
     8a6:	eb 50       	subi	r30, 0x0B	; 11
     8a8:	ff 4f       	sbci	r31, 0xFF	; 255
     8aa:	50 81       	ld	r21, Z
     8ac:	52 95       	swap	r21
     8ae:	55 0f       	add	r21, r21
     8b0:	50 7e       	andi	r21, 0xE0	; 224
     8b2:	54 2b       	or	r21, r20
     8b4:	17 96       	adiw	r26, 0x07	; 7
     8b6:	ec 91       	ld	r30, X
     8b8:	17 97       	sbiw	r26, 0x07	; 7
     8ba:	f0 e0       	ldi	r31, 0x00	; 0
     8bc:	ee 0f       	add	r30, r30
     8be:	ff 1f       	adc	r31, r31
     8c0:	ee 0f       	add	r30, r30
     8c2:	ff 1f       	adc	r31, r31
     8c4:	ee 0f       	add	r30, r30
     8c6:	ff 1f       	adc	r31, r31
     8c8:	e8 0f       	add	r30, r24
     8ca:	f9 1f       	adc	r31, r25
     8cc:	eb 50       	subi	r30, 0x0B	; 11
     8ce:	ff 4f       	sbci	r31, 0xFF	; 255
     8d0:	30 81       	ld	r19, Z
     8d2:	32 95       	swap	r19
     8d4:	33 0f       	add	r19, r19
     8d6:	30 7e       	andi	r19, 0xE0	; 224
     8d8:	32 2b       	or	r19, r18
     8da:	18 96       	adiw	r26, 0x08	; 8
     8dc:	ec 91       	ld	r30, X
     8de:	18 97       	sbiw	r26, 0x08	; 8
     8e0:	f0 e0       	ldi	r31, 0x00	; 0
     8e2:	ee 0f       	add	r30, r30
     8e4:	ff 1f       	adc	r31, r31
     8e6:	ee 0f       	add	r30, r30
     8e8:	ff 1f       	adc	r31, r31
     8ea:	ee 0f       	add	r30, r30
     8ec:	ff 1f       	adc	r31, r31
     8ee:	e8 0f       	add	r30, r24
     8f0:	f9 1f       	adc	r31, r25
     8f2:	eb 50       	subi	r30, 0x0B	; 11
     8f4:	ff 4f       	sbci	r31, 0xFF	; 255
     8f6:	c0 81       	ld	r28, Z
     8f8:	c2 95       	swap	r28
     8fa:	cc 0f       	add	r28, r28
     8fc:	c0 7e       	andi	r28, 0xE0	; 224
     8fe:	c0 2b       	or	r28, r16
     900:	cb 01       	movw	r24, r22
     902:	06 96       	adiw	r24, 0x06	; 6
     904:	87 70       	andi	r24, 0x07	; 7
     906:	90 70       	andi	r25, 0x00	; 0
     908:	13 96       	adiw	r26, 0x03	; 3
     90a:	ec 91       	ld	r30, X
     90c:	13 97       	sbiw	r26, 0x03	; 3
     90e:	f0 e0       	ldi	r31, 0x00	; 0
     910:	ee 0f       	add	r30, r30
     912:	ff 1f       	adc	r31, r31
     914:	ee 0f       	add	r30, r30
     916:	ff 1f       	adc	r31, r31
     918:	ee 0f       	add	r30, r30
     91a:	ff 1f       	adc	r31, r31
     91c:	e8 0f       	add	r30, r24
     91e:	f9 1f       	adc	r31, r25
     920:	eb 50       	subi	r30, 0x0B	; 11
     922:	ff 4f       	sbci	r31, 0xFF	; 255
     924:	40 81       	ld	r20, Z
     926:	42 95       	swap	r20
     928:	44 0f       	add	r20, r20
     92a:	44 0f       	add	r20, r20
     92c:	40 7c       	andi	r20, 0xC0	; 192
     92e:	45 2b       	or	r20, r21
     930:	14 96       	adiw	r26, 0x04	; 4
     932:	ec 91       	ld	r30, X
     934:	14 97       	sbiw	r26, 0x04	; 4
     936:	f0 e0       	ldi	r31, 0x00	; 0
     938:	ee 0f       	add	r30, r30
     93a:	ff 1f       	adc	r31, r31
     93c:	ee 0f       	add	r30, r30
     93e:	ff 1f       	adc	r31, r31
     940:	ee 0f       	add	r30, r30
     942:	ff 1f       	adc	r31, r31
     944:	e8 0f       	add	r30, r24
     946:	f9 1f       	adc	r31, r25
     948:	eb 50       	subi	r30, 0x0B	; 11
     94a:	ff 4f       	sbci	r31, 0xFF	; 255
     94c:	20 81       	ld	r18, Z
     94e:	22 95       	swap	r18
     950:	22 0f       	add	r18, r18
     952:	22 0f       	add	r18, r18
     954:	20 7c       	andi	r18, 0xC0	; 192
     956:	23 2b       	or	r18, r19
     958:	15 96       	adiw	r26, 0x05	; 5
     95a:	ec 91       	ld	r30, X
     95c:	15 97       	sbiw	r26, 0x05	; 5
     95e:	f0 e0       	ldi	r31, 0x00	; 0
     960:	ee 0f       	add	r30, r30
     962:	ff 1f       	adc	r31, r31
     964:	ee 0f       	add	r30, r30
     966:	ff 1f       	adc	r31, r31
     968:	ee 0f       	add	r30, r30
     96a:	ff 1f       	adc	r31, r31
     96c:	e8 0f       	add	r30, r24
     96e:	f9 1f       	adc	r31, r25
     970:	eb 50       	subi	r30, 0x0B	; 11
     972:	ff 4f       	sbci	r31, 0xFF	; 255
     974:	30 81       	ld	r19, Z
     976:	32 95       	swap	r19
     978:	33 0f       	add	r19, r19
     97a:	33 0f       	add	r19, r19
     97c:	30 7c       	andi	r19, 0xC0	; 192
     97e:	3c 2b       	or	r19, r28
     980:	cb 01       	movw	r24, r22
     982:	07 96       	adiw	r24, 0x07	; 7
     984:	87 70       	andi	r24, 0x07	; 7
     986:	90 70       	andi	r25, 0x00	; 0
     988:	ec 91       	ld	r30, X
     98a:	f0 e0       	ldi	r31, 0x00	; 0
     98c:	ee 0f       	add	r30, r30
     98e:	ff 1f       	adc	r31, r31
     990:	ee 0f       	add	r30, r30
     992:	ff 1f       	adc	r31, r31
     994:	ee 0f       	add	r30, r30
     996:	ff 1f       	adc	r31, r31
     998:	e8 0f       	add	r30, r24
     99a:	f9 1f       	adc	r31, r25
     99c:	eb 50       	subi	r30, 0x0B	; 11
     99e:	ff 4f       	sbci	r31, 0xFF	; 255
     9a0:	60 81       	ld	r22, Z
     9a2:	67 95       	ror	r22
     9a4:	66 27       	eor	r22, r22
     9a6:	67 95       	ror	r22
     9a8:	64 2b       	or	r22, r20
     9aa:	11 96       	adiw	r26, 0x01	; 1
     9ac:	ec 91       	ld	r30, X
     9ae:	11 97       	sbiw	r26, 0x01	; 1
     9b0:	f0 e0       	ldi	r31, 0x00	; 0
     9b2:	ee 0f       	add	r30, r30
     9b4:	ff 1f       	adc	r31, r31
     9b6:	ee 0f       	add	r30, r30
     9b8:	ff 1f       	adc	r31, r31
     9ba:	ee 0f       	add	r30, r30
     9bc:	ff 1f       	adc	r31, r31
     9be:	e8 0f       	add	r30, r24
     9c0:	f9 1f       	adc	r31, r25
     9c2:	eb 50       	subi	r30, 0x0B	; 11
     9c4:	ff 4f       	sbci	r31, 0xFF	; 255
     9c6:	e0 81       	ld	r30, Z
     9c8:	e7 95       	ror	r30
     9ca:	ee 27       	eor	r30, r30
     9cc:	e7 95       	ror	r30
     9ce:	e2 2b       	or	r30, r18
     9d0:	12 96       	adiw	r26, 0x02	; 2
     9d2:	ac 91       	ld	r26, X
     9d4:	b0 e0       	ldi	r27, 0x00	; 0
     9d6:	aa 0f       	add	r26, r26
     9d8:	bb 1f       	adc	r27, r27
     9da:	aa 0f       	add	r26, r26
     9dc:	bb 1f       	adc	r27, r27
     9de:	aa 0f       	add	r26, r26
     9e0:	bb 1f       	adc	r27, r27
     9e2:	a8 0f       	add	r26, r24
     9e4:	b9 1f       	adc	r27, r25
     9e6:	ab 50       	subi	r26, 0x0B	; 11
     9e8:	bf 4f       	sbci	r27, 0xFF	; 255
     9ea:	cc 91       	ld	r28, X
     9ec:	c7 95       	ror	r28
     9ee:	cc 27       	eor	r28, r28
     9f0:	c7 95       	ror	r28
     9f2:	c3 2b       	or	r28, r19
     9f4:	10 92 56 03 	sts	0x0356, r1
     9f8:	70 e0       	ldi	r23, 0x00	; 0
     9fa:	60 95       	com	r22
     9fc:	70 95       	com	r23
     9fe:	f0 e0       	ldi	r31, 0x00	; 0
     a00:	e0 95       	com	r30
     a02:	f0 95       	com	r31
     a04:	d0 e0       	ldi	r29, 0x00	; 0
     a06:	c0 95       	com	r28
     a08:	d0 95       	com	r29
     a0a:	81 e0       	ldi	r24, 0x01	; 1
     a0c:	90 e0       	ldi	r25, 0x00	; 0
     a0e:	01 c0       	rjmp	.+2      	; 0xa12 <__stack+0x1b3>
     a10:	88 0f       	add	r24, r24
     a12:	1a 95       	dec	r17
     a14:	ea f7       	brpl	.-6      	; 0xa10 <__stack+0x1b1>
     a16:	08 2f       	mov	r16, r24
     a18:	10 e0       	ldi	r17, 0x00	; 0
     a1a:	80 e0       	ldi	r24, 0x00	; 0
     a1c:	a0 e0       	ldi	r26, 0x00	; 0
     a1e:	9f 01       	movw	r18, r30
     a20:	08 2e       	mov	r0, r24
     a22:	02 c0       	rjmp	.+4      	; 0xa28 <__stack+0x1c9>
     a24:	35 95       	asr	r19
     a26:	27 95       	ror	r18
     a28:	0a 94       	dec	r0
     a2a:	e2 f7       	brpl	.-8      	; 0xa24 <__stack+0x1c5>
     a2c:	22 0f       	add	r18, r18
     a2e:	33 1f       	adc	r19, r19
     a30:	b2 2f       	mov	r27, r18
     a32:	b2 70       	andi	r27, 0x02	; 2
     a34:	9e 01       	movw	r18, r28
     a36:	08 2e       	mov	r0, r24
     a38:	02 c0       	rjmp	.+4      	; 0xa3e <__stack+0x1df>
     a3a:	35 95       	asr	r19
     a3c:	27 95       	ror	r18
     a3e:	0a 94       	dec	r0
     a40:	e2 f7       	brpl	.-8      	; 0xa3a <__stack+0x1db>
     a42:	22 0f       	add	r18, r18
     a44:	33 1f       	adc	r19, r19
     a46:	22 0f       	add	r18, r18
     a48:	33 1f       	adc	r19, r19
     a4a:	24 70       	andi	r18, 0x04	; 4
     a4c:	b2 2b       	or	r27, r18
     a4e:	ab 01       	movw	r20, r22
     a50:	08 2e       	mov	r0, r24
     a52:	02 c0       	rjmp	.+4      	; 0xa58 <__stack+0x1f9>
     a54:	55 95       	asr	r21
     a56:	47 95       	ror	r20
     a58:	0a 94       	dec	r0
     a5a:	e2 f7       	brpl	.-8      	; 0xa54 <__stack+0x1f5>
     a5c:	41 70       	andi	r20, 0x01	; 1
     a5e:	b4 2b       	or	r27, r20
     a60:	98 01       	movw	r18, r16
     a62:	02 c0       	rjmp	.+4      	; 0xa68 <__stack+0x209>
     a64:	35 95       	asr	r19
     a66:	27 95       	ror	r18
     a68:	8a 95       	dec	r24
     a6a:	e2 f7       	brpl	.-8      	; 0xa64 <__stack+0x205>
     a6c:	c9 01       	movw	r24, r18
     a6e:	88 0f       	add	r24, r24
     a70:	99 1f       	adc	r25, r25
     a72:	88 0f       	add	r24, r24
     a74:	99 1f       	adc	r25, r25
     a76:	88 0f       	add	r24, r24
     a78:	99 1f       	adc	r25, r25
     a7a:	88 70       	andi	r24, 0x08	; 8
     a7c:	b8 2b       	or	r27, r24
     a7e:	b5 bb       	out	0x15, r27	; 21
     a80:	8b 2f       	mov	r24, r27
     a82:	80 61       	ori	r24, 0x10	; 16
     a84:	85 bb       	out	0x15, r24	; 21
     a86:	8a 2f       	mov	r24, r26
     a88:	8f 5f       	subi	r24, 0xFF	; 255
     a8a:	a8 2f       	mov	r26, r24
     a8c:	80 93 55 03 	sts	0x0355, r24
     a90:	88 30       	cpi	r24, 0x08	; 8
     a92:	28 f2       	brcs	.-118    	; 0xa1e <__stack+0x1bf>
     a94:	b0 63       	ori	r27, 0x30	; 48
     a96:	b5 bb       	out	0x15, r27	; 21
     a98:	bf 7d       	andi	r27, 0xDF	; 223
     a9a:	b0 93 73 04 	sts	0x0473, r27
     a9e:	b5 bb       	out	0x15, r27	; 21
     aa0:	f3 94       	inc	r15
     aa2:	f0 92 52 03 	sts	0x0352, r15
     aa6:	80 e0       	ldi	r24, 0x00	; 0
     aa8:	df 91       	pop	r29
     aaa:	cf 91       	pop	r28
     aac:	1f 91       	pop	r17
     aae:	0f 91       	pop	r16
     ab0:	ff 90       	pop	r15
     ab2:	08 95       	ret
     ab4:	20 91 53 03 	lds	r18, 0x0353
     ab8:	30 e0       	ldi	r19, 0x00	; 0
     aba:	2f 5f       	subi	r18, 0xFF	; 255
     abc:	3f 4f       	sbci	r19, 0xFF	; 255
     abe:	27 70       	andi	r18, 0x07	; 7
     ac0:	30 70       	andi	r19, 0x00	; 0
     ac2:	62 2f       	mov	r22, r18
     ac4:	20 93 53 03 	sts	0x0353, r18
     ac8:	87 e0       	ldi	r24, 0x07	; 7
     aca:	80 93 54 03 	sts	0x0354, r24
     ace:	17 e0       	ldi	r17, 0x07	; 7
     ad0:	ff 24       	eor	r15, r15
     ad2:	b1 cd       	rjmp	.-1182   	; 0x636 <LED_Matrix+0x24>

00000ad4 <audioTick>:
     ad4:	1f 93       	push	r17
     ad6:	cf 93       	push	r28
     ad8:	df 93       	push	r29
     ada:	00 d0       	rcall	.+0      	; 0xadc <audioTick+0x8>
     adc:	cd b7       	in	r28, 0x3d	; 61
     ade:	de b7       	in	r29, 0x3e	; 62
     ae0:	18 2f       	mov	r17, r24
     ae2:	80 91 7a 04 	lds	r24, 0x047A
     ae6:	90 91 7b 04 	lds	r25, 0x047B
     aea:	88 0f       	add	r24, r24
     aec:	99 1f       	adc	r25, r25
     aee:	60 91 76 04 	lds	r22, 0x0476
     af2:	70 91 77 04 	lds	r23, 0x0477
     af6:	68 0f       	add	r22, r24
     af8:	79 1f       	adc	r23, r25
     afa:	ce 01       	movw	r24, r28
     afc:	01 96       	adiw	r24, 0x01	; 1
     afe:	42 e0       	ldi	r20, 0x02	; 2
     b00:	50 e0       	ldi	r21, 0x00	; 0
     b02:	0e 94 dd 2d 	call	0x5bba	; 0x5bba <memcpy_P>
     b06:	11 30       	cpi	r17, 0x01	; 1
     b08:	09 f4       	brne	.+2      	; 0xb0c <audioTick+0x38>
     b0a:	9a c0       	rjmp	.+308    	; 0xc40 <audioTick+0x16c>
     b0c:	11 30       	cpi	r17, 0x01	; 1
     b0e:	50 f0       	brcs	.+20     	; 0xb24 <audioTick+0x50>
     b10:	1f 3f       	cpi	r17, 0xFF	; 255
     b12:	09 f4       	brne	.+2      	; 0xb16 <audioTick+0x42>
     b14:	10 c1       	rjmp	.+544    	; 0xd36 <audioTick+0x262>
     b16:	8f ef       	ldi	r24, 0xFF	; 255
     b18:	0f 90       	pop	r0
     b1a:	0f 90       	pop	r0
     b1c:	df 91       	pop	r29
     b1e:	cf 91       	pop	r28
     b20:	1f 91       	pop	r17
     b22:	08 95       	ret
     b24:	80 91 57 03 	lds	r24, 0x0357
     b28:	90 91 58 03 	lds	r25, 0x0358
     b2c:	a0 e0       	ldi	r26, 0x00	; 0
     b2e:	b0 e0       	ldi	r27, 0x00	; 0
     b30:	80 93 3c 04 	sts	0x043C, r24
     b34:	90 93 3d 04 	sts	0x043D, r25
     b38:	a0 93 3e 04 	sts	0x043E, r26
     b3c:	b0 93 3f 04 	sts	0x043F, r27
     b40:	29 81       	ldd	r18, Y+1	; 0x01
     b42:	30 91 6f 04 	lds	r19, 0x046F
     b46:	3a 7f       	andi	r19, 0xFA	; 250
     b48:	3b bb       	out	0x1b, r19	; 27
     b4a:	82 2f       	mov	r24, r18
     b4c:	90 e0       	ldi	r25, 0x00	; 0
     b4e:	21 70       	andi	r18, 0x01	; 1
     b50:	23 2b       	or	r18, r19
     b52:	2b bb       	out	0x1b, r18	; 27
     b54:	24 60       	ori	r18, 0x04	; 4
     b56:	2b bb       	out	0x1b, r18	; 27
     b58:	42 2f       	mov	r20, r18
     b5a:	4a 7f       	andi	r20, 0xFA	; 250
     b5c:	4b bb       	out	0x1b, r20	; 27
     b5e:	9c 01       	movw	r18, r24
     b60:	35 95       	asr	r19
     b62:	27 95       	ror	r18
     b64:	21 70       	andi	r18, 0x01	; 1
     b66:	24 2b       	or	r18, r20
     b68:	2b bb       	out	0x1b, r18	; 27
     b6a:	24 60       	ori	r18, 0x04	; 4
     b6c:	2b bb       	out	0x1b, r18	; 27
     b6e:	42 2f       	mov	r20, r18
     b70:	4a 7f       	andi	r20, 0xFA	; 250
     b72:	4b bb       	out	0x1b, r20	; 27
     b74:	9c 01       	movw	r18, r24
     b76:	35 95       	asr	r19
     b78:	27 95       	ror	r18
     b7a:	35 95       	asr	r19
     b7c:	27 95       	ror	r18
     b7e:	21 70       	andi	r18, 0x01	; 1
     b80:	24 2b       	or	r18, r20
     b82:	2b bb       	out	0x1b, r18	; 27
     b84:	24 60       	ori	r18, 0x04	; 4
     b86:	2b bb       	out	0x1b, r18	; 27
     b88:	42 2f       	mov	r20, r18
     b8a:	4a 7f       	andi	r20, 0xFA	; 250
     b8c:	4b bb       	out	0x1b, r20	; 27
     b8e:	9c 01       	movw	r18, r24
     b90:	35 95       	asr	r19
     b92:	27 95       	ror	r18
     b94:	35 95       	asr	r19
     b96:	27 95       	ror	r18
     b98:	35 95       	asr	r19
     b9a:	27 95       	ror	r18
     b9c:	21 70       	andi	r18, 0x01	; 1
     b9e:	24 2b       	or	r18, r20
     ba0:	2b bb       	out	0x1b, r18	; 27
     ba2:	24 60       	ori	r18, 0x04	; 4
     ba4:	2b bb       	out	0x1b, r18	; 27
     ba6:	42 2f       	mov	r20, r18
     ba8:	4a 7f       	andi	r20, 0xFA	; 250
     baa:	4b bb       	out	0x1b, r20	; 27
     bac:	9c 01       	movw	r18, r24
     bae:	35 95       	asr	r19
     bb0:	27 95       	ror	r18
     bb2:	35 95       	asr	r19
     bb4:	27 95       	ror	r18
     bb6:	35 95       	asr	r19
     bb8:	27 95       	ror	r18
     bba:	35 95       	asr	r19
     bbc:	27 95       	ror	r18
     bbe:	21 70       	andi	r18, 0x01	; 1
     bc0:	24 2b       	or	r18, r20
     bc2:	2b bb       	out	0x1b, r18	; 27
     bc4:	24 60       	ori	r18, 0x04	; 4
     bc6:	2b bb       	out	0x1b, r18	; 27
     bc8:	42 2f       	mov	r20, r18
     bca:	4a 7f       	andi	r20, 0xFA	; 250
     bcc:	4b bb       	out	0x1b, r20	; 27
     bce:	9c 01       	movw	r18, r24
     bd0:	35 95       	asr	r19
     bd2:	27 95       	ror	r18
     bd4:	35 95       	asr	r19
     bd6:	27 95       	ror	r18
     bd8:	35 95       	asr	r19
     bda:	27 95       	ror	r18
     bdc:	35 95       	asr	r19
     bde:	27 95       	ror	r18
     be0:	35 95       	asr	r19
     be2:	27 95       	ror	r18
     be4:	21 70       	andi	r18, 0x01	; 1
     be6:	24 2b       	or	r18, r20
     be8:	2b bb       	out	0x1b, r18	; 27
     bea:	24 60       	ori	r18, 0x04	; 4
     bec:	2b bb       	out	0x1b, r18	; 27
     bee:	42 2f       	mov	r20, r18
     bf0:	4a 7f       	andi	r20, 0xFA	; 250
     bf2:	4b bb       	out	0x1b, r20	; 27
     bf4:	9c 01       	movw	r18, r24
     bf6:	02 2e       	mov	r0, r18
     bf8:	23 2f       	mov	r18, r19
     bfa:	00 0c       	add	r0, r0
     bfc:	22 1f       	adc	r18, r18
     bfe:	33 0b       	sbc	r19, r19
     c00:	00 0c       	add	r0, r0
     c02:	22 1f       	adc	r18, r18
     c04:	33 1f       	adc	r19, r19
     c06:	21 70       	andi	r18, 0x01	; 1
     c08:	24 2b       	or	r18, r20
     c0a:	2b bb       	out	0x1b, r18	; 27
     c0c:	24 60       	ori	r18, 0x04	; 4
     c0e:	2b bb       	out	0x1b, r18	; 27
     c10:	2a 7f       	andi	r18, 0xFA	; 250
     c12:	2b bb       	out	0x1b, r18	; 27
     c14:	88 0f       	add	r24, r24
     c16:	89 2f       	mov	r24, r25
     c18:	88 1f       	adc	r24, r24
     c1a:	99 0b       	sbc	r25, r25
     c1c:	82 2b       	or	r24, r18
     c1e:	8b bb       	out	0x1b, r24	; 27
     c20:	98 2f       	mov	r25, r24
     c22:	94 60       	ori	r25, 0x04	; 4
     c24:	9b bb       	out	0x1b, r25	; 27
     c26:	86 60       	ori	r24, 0x06	; 6
     c28:	8b bb       	out	0x1b, r24	; 27
     c2a:	8d 7f       	andi	r24, 0xFD	; 253
     c2c:	80 93 6f 04 	sts	0x046F, r24
     c30:	8b bb       	out	0x1b, r24	; 27
     c32:	81 e0       	ldi	r24, 0x01	; 1
     c34:	0f 90       	pop	r0
     c36:	0f 90       	pop	r0
     c38:	df 91       	pop	r29
     c3a:	cf 91       	pop	r28
     c3c:	1f 91       	pop	r17
     c3e:	08 95       	ret
     c40:	80 e5       	ldi	r24, 0x50	; 80
     c42:	90 e0       	ldi	r25, 0x00	; 0
     c44:	a0 e0       	ldi	r26, 0x00	; 0
     c46:	b0 e0       	ldi	r27, 0x00	; 0
     c48:	80 93 3c 04 	sts	0x043C, r24
     c4c:	90 93 3d 04 	sts	0x043D, r25
     c50:	a0 93 3e 04 	sts	0x043E, r26
     c54:	b0 93 3f 04 	sts	0x043F, r27
     c58:	80 91 7a 04 	lds	r24, 0x047A
     c5c:	90 91 7b 04 	lds	r25, 0x047B
     c60:	01 96       	adiw	r24, 0x01	; 1
     c62:	60 91 78 04 	lds	r22, 0x0478
     c66:	70 91 79 04 	lds	r23, 0x0479
     c6a:	0e 94 45 2d 	call	0x5a8a	; 0x5a8a <__udivmodhi4>
     c6e:	90 93 7b 04 	sts	0x047B, r25
     c72:	80 93 7a 04 	sts	0x047A, r24
     c76:	88 0f       	add	r24, r24
     c78:	99 1f       	adc	r25, r25
     c7a:	60 91 76 04 	lds	r22, 0x0476
     c7e:	70 91 77 04 	lds	r23, 0x0477
     c82:	68 0f       	add	r22, r24
     c84:	79 1f       	adc	r23, r25
     c86:	ce 01       	movw	r24, r28
     c88:	01 96       	adiw	r24, 0x01	; 1
     c8a:	42 e0       	ldi	r20, 0x02	; 2
     c8c:	50 e0       	ldi	r21, 0x00	; 0
     c8e:	0e 94 dd 2d 	call	0x5bba	; 0x5bba <memcpy_P>
     c92:	80 91 6f 04 	lds	r24, 0x046F
     c96:	8a 7f       	andi	r24, 0xFA	; 250
     c98:	8b bb       	out	0x1b, r24	; 27
     c9a:	8b bb       	out	0x1b, r24	; 27
     c9c:	84 60       	ori	r24, 0x04	; 4
     c9e:	8b bb       	out	0x1b, r24	; 27
     ca0:	8a 7f       	andi	r24, 0xFA	; 250
     ca2:	8b bb       	out	0x1b, r24	; 27
     ca4:	8b bb       	out	0x1b, r24	; 27
     ca6:	84 60       	ori	r24, 0x04	; 4
     ca8:	8b bb       	out	0x1b, r24	; 27
     caa:	8a 7f       	andi	r24, 0xFA	; 250
     cac:	8b bb       	out	0x1b, r24	; 27
     cae:	8b bb       	out	0x1b, r24	; 27
     cb0:	84 60       	ori	r24, 0x04	; 4
     cb2:	8b bb       	out	0x1b, r24	; 27
     cb4:	8a 7f       	andi	r24, 0xFA	; 250
     cb6:	8b bb       	out	0x1b, r24	; 27
     cb8:	8b bb       	out	0x1b, r24	; 27
     cba:	84 60       	ori	r24, 0x04	; 4
     cbc:	8b bb       	out	0x1b, r24	; 27
     cbe:	8a 7f       	andi	r24, 0xFA	; 250
     cc0:	8b bb       	out	0x1b, r24	; 27
     cc2:	8b bb       	out	0x1b, r24	; 27
     cc4:	84 60       	ori	r24, 0x04	; 4
     cc6:	8b bb       	out	0x1b, r24	; 27
     cc8:	8a 7f       	andi	r24, 0xFA	; 250
     cca:	8b bb       	out	0x1b, r24	; 27
     ccc:	8b bb       	out	0x1b, r24	; 27
     cce:	84 60       	ori	r24, 0x04	; 4
     cd0:	8b bb       	out	0x1b, r24	; 27
     cd2:	8a 7f       	andi	r24, 0xFA	; 250
     cd4:	8b bb       	out	0x1b, r24	; 27
     cd6:	8b bb       	out	0x1b, r24	; 27
     cd8:	84 60       	ori	r24, 0x04	; 4
     cda:	8b bb       	out	0x1b, r24	; 27
     cdc:	8a 7f       	andi	r24, 0xFA	; 250
     cde:	8b bb       	out	0x1b, r24	; 27
     ce0:	8b bb       	out	0x1b, r24	; 27
     ce2:	98 2f       	mov	r25, r24
     ce4:	94 60       	ori	r25, 0x04	; 4
     ce6:	9b bb       	out	0x1b, r25	; 27
     ce8:	86 60       	ori	r24, 0x06	; 6
     cea:	8b bb       	out	0x1b, r24	; 27
     cec:	8d 7f       	andi	r24, 0xFD	; 253
     cee:	80 93 6f 04 	sts	0x046F, r24
     cf2:	8b bb       	out	0x1b, r24	; 27
     cf4:	9a 81       	ldd	r25, Y+2	; 0x02
     cf6:	8a ea       	ldi	r24, 0xAA	; 170
     cf8:	98 9f       	mul	r25, r24
     cfa:	c0 01       	movw	r24, r0
     cfc:	11 24       	eor	r1, r1
     cfe:	90 93 58 03 	sts	0x0358, r25
     d02:	80 93 57 03 	sts	0x0357, r24
     d06:	80 91 58 01 	lds	r24, 0x0158
     d0a:	90 91 59 01 	lds	r25, 0x0159
     d0e:	a0 91 5a 01 	lds	r26, 0x015A
     d12:	b0 91 5b 01 	lds	r27, 0x015B
     d16:	8f 3f       	cpi	r24, 0xFF	; 255
     d18:	2f ef       	ldi	r18, 0xFF	; 255
     d1a:	92 07       	cpc	r25, r18
     d1c:	20 e0       	ldi	r18, 0x00	; 0
     d1e:	a2 07       	cpc	r26, r18
     d20:	20 e0       	ldi	r18, 0x00	; 0
     d22:	b2 07       	cpc	r27, r18
     d24:	09 f4       	brne	.+2      	; 0xd28 <audioTick+0x254>
     d26:	92 c0       	rjmp	.+292    	; 0xe4c <audioTick+0x378>
     d28:	80 e0       	ldi	r24, 0x00	; 0
     d2a:	0f 90       	pop	r0
     d2c:	0f 90       	pop	r0
     d2e:	df 91       	pop	r29
     d30:	cf 91       	pop	r28
     d32:	1f 91       	pop	r17
     d34:	08 95       	ret
     d36:	29 81       	ldd	r18, Y+1	; 0x01
     d38:	82 2f       	mov	r24, r18
     d3a:	90 e0       	ldi	r25, 0x00	; 0
     d3c:	30 91 6f 04 	lds	r19, 0x046F
     d40:	3a 7f       	andi	r19, 0xFA	; 250
     d42:	3b bb       	out	0x1b, r19	; 27
     d44:	21 70       	andi	r18, 0x01	; 1
     d46:	23 2b       	or	r18, r19
     d48:	2b bb       	out	0x1b, r18	; 27
     d4a:	24 60       	ori	r18, 0x04	; 4
     d4c:	2b bb       	out	0x1b, r18	; 27
     d4e:	42 2f       	mov	r20, r18
     d50:	4a 7f       	andi	r20, 0xFA	; 250
     d52:	4b bb       	out	0x1b, r20	; 27
     d54:	9c 01       	movw	r18, r24
     d56:	35 95       	asr	r19
     d58:	27 95       	ror	r18
     d5a:	21 70       	andi	r18, 0x01	; 1
     d5c:	24 2b       	or	r18, r20
     d5e:	2b bb       	out	0x1b, r18	; 27
     d60:	24 60       	ori	r18, 0x04	; 4
     d62:	2b bb       	out	0x1b, r18	; 27
     d64:	42 2f       	mov	r20, r18
     d66:	4a 7f       	andi	r20, 0xFA	; 250
     d68:	4b bb       	out	0x1b, r20	; 27
     d6a:	9c 01       	movw	r18, r24
     d6c:	35 95       	asr	r19
     d6e:	27 95       	ror	r18
     d70:	35 95       	asr	r19
     d72:	27 95       	ror	r18
     d74:	21 70       	andi	r18, 0x01	; 1
     d76:	24 2b       	or	r18, r20
     d78:	2b bb       	out	0x1b, r18	; 27
     d7a:	24 60       	ori	r18, 0x04	; 4
     d7c:	2b bb       	out	0x1b, r18	; 27
     d7e:	42 2f       	mov	r20, r18
     d80:	4a 7f       	andi	r20, 0xFA	; 250
     d82:	4b bb       	out	0x1b, r20	; 27
     d84:	9c 01       	movw	r18, r24
     d86:	35 95       	asr	r19
     d88:	27 95       	ror	r18
     d8a:	35 95       	asr	r19
     d8c:	27 95       	ror	r18
     d8e:	35 95       	asr	r19
     d90:	27 95       	ror	r18
     d92:	21 70       	andi	r18, 0x01	; 1
     d94:	24 2b       	or	r18, r20
     d96:	2b bb       	out	0x1b, r18	; 27
     d98:	24 60       	ori	r18, 0x04	; 4
     d9a:	2b bb       	out	0x1b, r18	; 27
     d9c:	42 2f       	mov	r20, r18
     d9e:	4a 7f       	andi	r20, 0xFA	; 250
     da0:	4b bb       	out	0x1b, r20	; 27
     da2:	9c 01       	movw	r18, r24
     da4:	35 95       	asr	r19
     da6:	27 95       	ror	r18
     da8:	35 95       	asr	r19
     daa:	27 95       	ror	r18
     dac:	35 95       	asr	r19
     dae:	27 95       	ror	r18
     db0:	35 95       	asr	r19
     db2:	27 95       	ror	r18
     db4:	21 70       	andi	r18, 0x01	; 1
     db6:	24 2b       	or	r18, r20
     db8:	2b bb       	out	0x1b, r18	; 27
     dba:	24 60       	ori	r18, 0x04	; 4
     dbc:	2b bb       	out	0x1b, r18	; 27
     dbe:	42 2f       	mov	r20, r18
     dc0:	4a 7f       	andi	r20, 0xFA	; 250
     dc2:	4b bb       	out	0x1b, r20	; 27
     dc4:	9c 01       	movw	r18, r24
     dc6:	35 95       	asr	r19
     dc8:	27 95       	ror	r18
     dca:	35 95       	asr	r19
     dcc:	27 95       	ror	r18
     dce:	35 95       	asr	r19
     dd0:	27 95       	ror	r18
     dd2:	35 95       	asr	r19
     dd4:	27 95       	ror	r18
     dd6:	35 95       	asr	r19
     dd8:	27 95       	ror	r18
     dda:	21 70       	andi	r18, 0x01	; 1
     ddc:	24 2b       	or	r18, r20
     dde:	2b bb       	out	0x1b, r18	; 27
     de0:	24 60       	ori	r18, 0x04	; 4
     de2:	2b bb       	out	0x1b, r18	; 27
     de4:	42 2f       	mov	r20, r18
     de6:	4a 7f       	andi	r20, 0xFA	; 250
     de8:	4b bb       	out	0x1b, r20	; 27
     dea:	9c 01       	movw	r18, r24
     dec:	02 2e       	mov	r0, r18
     dee:	23 2f       	mov	r18, r19
     df0:	00 0c       	add	r0, r0
     df2:	22 1f       	adc	r18, r18
     df4:	33 0b       	sbc	r19, r19
     df6:	00 0c       	add	r0, r0
     df8:	22 1f       	adc	r18, r18
     dfa:	33 1f       	adc	r19, r19
     dfc:	21 70       	andi	r18, 0x01	; 1
     dfe:	24 2b       	or	r18, r20
     e00:	2b bb       	out	0x1b, r18	; 27
     e02:	24 60       	ori	r18, 0x04	; 4
     e04:	2b bb       	out	0x1b, r18	; 27
     e06:	2a 7f       	andi	r18, 0xFA	; 250
     e08:	2b bb       	out	0x1b, r18	; 27
     e0a:	88 0f       	add	r24, r24
     e0c:	89 2f       	mov	r24, r25
     e0e:	88 1f       	adc	r24, r24
     e10:	99 0b       	sbc	r25, r25
     e12:	82 2b       	or	r24, r18
     e14:	8b bb       	out	0x1b, r24	; 27
     e16:	98 2f       	mov	r25, r24
     e18:	94 60       	ori	r25, 0x04	; 4
     e1a:	9b bb       	out	0x1b, r25	; 27
     e1c:	86 60       	ori	r24, 0x06	; 6
     e1e:	8b bb       	out	0x1b, r24	; 27
     e20:	8d 7f       	andi	r24, 0xFD	; 253
     e22:	80 93 6f 04 	sts	0x046F, r24
     e26:	8b bb       	out	0x1b, r24	; 27
     e28:	9a 81       	ldd	r25, Y+2	; 0x02
     e2a:	8a ea       	ldi	r24, 0xAA	; 170
     e2c:	98 9f       	mul	r25, r24
     e2e:	c0 01       	movw	r24, r0
     e30:	11 24       	eor	r1, r1
     e32:	80 55       	subi	r24, 0x50	; 80
     e34:	90 40       	sbci	r25, 0x00	; 0
     e36:	90 93 58 03 	sts	0x0358, r25
     e3a:	80 93 57 03 	sts	0x0357, r24
     e3e:	80 e0       	ldi	r24, 0x00	; 0
     e40:	0f 90       	pop	r0
     e42:	0f 90       	pop	r0
     e44:	df 91       	pop	r29
     e46:	cf 91       	pop	r28
     e48:	1f 91       	pop	r17
     e4a:	08 95       	ret
     e4c:	82 e0       	ldi	r24, 0x02	; 2
     e4e:	64 ce       	rjmp	.-824    	; 0xb18 <audioTick+0x44>

00000e50 <LI_Tick>:
     e50:	86 30       	cpi	r24, 0x06	; 6
     e52:	09 f4       	brne	.+2      	; 0xe56 <LI_Tick+0x6>
     e54:	e4 c1       	rjmp	.+968    	; 0x121e <LI_Tick+0x3ce>
     e56:	87 30       	cpi	r24, 0x07	; 7
     e58:	80 f0       	brcs	.+32     	; 0xe7a <LI_Tick+0x2a>
     e5a:	89 30       	cpi	r24, 0x09	; 9
     e5c:	09 f4       	brne	.+2      	; 0xe60 <LI_Tick+0x10>
     e5e:	61 c1       	rjmp	.+706    	; 0x1122 <LI_Tick+0x2d2>
     e60:	8a 30       	cpi	r24, 0x0A	; 10
     e62:	08 f0       	brcs	.+2      	; 0xe66 <LI_Tick+0x16>
     e64:	50 c0       	rjmp	.+160    	; 0xf06 <LI_Tick+0xb6>
     e66:	87 30       	cpi	r24, 0x07	; 7
     e68:	09 f4       	brne	.+2      	; 0xe6c <LI_Tick+0x1c>
     e6a:	ef c0       	rjmp	.+478    	; 0x104a <LI_Tick+0x1fa>
     e6c:	88 30       	cpi	r24, 0x08	; 8
     e6e:	09 f4       	brne	.+2      	; 0xe72 <LI_Tick+0x22>
     e70:	ae c0       	rjmp	.+348    	; 0xfce <LI_Tick+0x17e>
     e72:	10 92 66 01 	sts	0x0166, r1
     e76:	80 e0       	ldi	r24, 0x00	; 0
     e78:	08 95       	ret
     e7a:	83 30       	cpi	r24, 0x03	; 3
     e7c:	09 f4       	brne	.+2      	; 0xe80 <LI_Tick+0x30>
     e7e:	94 c1       	rjmp	.+808    	; 0x11a8 <LI_Tick+0x358>
     e80:	84 30       	cpi	r24, 0x04	; 4
     e82:	08 f4       	brcc	.+2      	; 0xe86 <LI_Tick+0x36>
     e84:	50 c0       	rjmp	.+160    	; 0xf26 <LI_Tick+0xd6>
     e86:	84 30       	cpi	r24, 0x04	; 4
     e88:	09 f4       	brne	.+2      	; 0xe8c <LI_Tick+0x3c>
     e8a:	10 c1       	rjmp	.+544    	; 0x10ac <LI_Tick+0x25c>
     e8c:	85 30       	cpi	r24, 0x05	; 5
     e8e:	89 f7       	brne	.-30     	; 0xe72 <LI_Tick+0x22>
     e90:	e0 91 ec 00 	lds	r30, 0x00EC
     e94:	f0 91 ed 00 	lds	r31, 0x00ED
     e98:	80 81       	ld	r24, Z
     e9a:	8f 7e       	andi	r24, 0xEF	; 239
     e9c:	80 83       	st	Z, r24
     e9e:	e0 91 f0 00 	lds	r30, 0x00F0
     ea2:	f0 91 f1 00 	lds	r31, 0x00F1
     ea6:	a0 91 ec 00 	lds	r26, 0x00EC
     eaa:	b0 91 ed 00 	lds	r27, 0x00ED
     eae:	8c 91       	ld	r24, X
     eb0:	80 83       	st	Z, r24
     eb2:	e0 91 ec 00 	lds	r30, 0x00EC
     eb6:	f0 91 ed 00 	lds	r31, 0x00ED
     eba:	80 81       	ld	r24, Z
     ebc:	87 7f       	andi	r24, 0xF7	; 247
     ebe:	80 83       	st	Z, r24
     ec0:	e0 91 f0 00 	lds	r30, 0x00F0
     ec4:	f0 91 f1 00 	lds	r31, 0x00F1
     ec8:	a0 91 ec 00 	lds	r26, 0x00EC
     ecc:	b0 91 ed 00 	lds	r27, 0x00ED
     ed0:	8c 91       	ld	r24, X
     ed2:	80 83       	st	Z, r24
     ed4:	e0 91 f2 00 	lds	r30, 0x00F2
     ed8:	f0 91 f3 00 	lds	r31, 0x00F3
     edc:	81 e0       	ldi	r24, 0x01	; 1
     ede:	80 83       	st	Z, r24
     ee0:	e0 91 ec 00 	lds	r30, 0x00EC
     ee4:	f0 91 ed 00 	lds	r31, 0x00ED
     ee8:	80 81       	ld	r24, Z
     eea:	80 61       	ori	r24, 0x10	; 16
     eec:	80 83       	st	Z, r24
     eee:	e0 91 f0 00 	lds	r30, 0x00F0
     ef2:	f0 91 f1 00 	lds	r31, 0x00F1
     ef6:	a0 91 ec 00 	lds	r26, 0x00EC
     efa:	b0 91 ed 00 	lds	r27, 0x00ED
     efe:	8c 91       	ld	r24, X
     f00:	80 83       	st	Z, r24
     f02:	86 e0       	ldi	r24, 0x06	; 6
     f04:	08 95       	ret
     f06:	8a 30       	cpi	r24, 0x0A	; 10
     f08:	09 f4       	brne	.+2      	; 0xf0c <LI_Tick+0xbc>
     f0a:	42 c0       	rjmp	.+132    	; 0xf90 <LI_Tick+0x140>
     f0c:	8b 30       	cpi	r24, 0x0B	; 11
     f0e:	09 f0       	breq	.+2      	; 0xf12 <LI_Tick+0xc2>
     f10:	b0 cf       	rjmp	.-160    	; 0xe72 <LI_Tick+0x22>
     f12:	90 91 65 01 	lds	r25, 0x0165
     f16:	99 23       	and	r25, r25
     f18:	09 f0       	breq	.+2      	; 0xf1c <LI_Tick+0xcc>
     f1a:	97 c1       	rjmp	.+814    	; 0x124a <LI_Tick+0x3fa>
     f1c:	81 e0       	ldi	r24, 0x01	; 1
     f1e:	80 93 66 01 	sts	0x0166, r24
     f22:	87 e0       	ldi	r24, 0x07	; 7
     f24:	08 95       	ret
     f26:	88 23       	and	r24, r24
     f28:	09 f4       	brne	.+2      	; 0xf2c <LI_Tick+0xdc>
     f2a:	4c c0       	rjmp	.+152    	; 0xfc4 <LI_Tick+0x174>
     f2c:	81 30       	cpi	r24, 0x01	; 1
     f2e:	09 f0       	breq	.+2      	; 0xf32 <LI_Tick+0xe2>
     f30:	a0 cf       	rjmp	.-192    	; 0xe72 <LI_Tick+0x22>
     f32:	80 91 51 03 	lds	r24, 0x0351
     f36:	84 36       	cpi	r24, 0x64	; 100
     f38:	08 f4       	brcc	.+2      	; 0xf3c <LI_Tick+0xec>
     f3a:	85 c1       	rjmp	.+778    	; 0x1246 <LI_Tick+0x3f6>
     f3c:	e0 91 ec 00 	lds	r30, 0x00EC
     f40:	f0 91 ed 00 	lds	r31, 0x00ED
     f44:	80 81       	ld	r24, Z
     f46:	87 7f       	andi	r24, 0xF7	; 247
     f48:	80 83       	st	Z, r24
     f4a:	e0 91 f0 00 	lds	r30, 0x00F0
     f4e:	f0 91 f1 00 	lds	r31, 0x00F1
     f52:	a0 91 ec 00 	lds	r26, 0x00EC
     f56:	b0 91 ed 00 	lds	r27, 0x00ED
     f5a:	8c 91       	ld	r24, X
     f5c:	80 83       	st	Z, r24
     f5e:	e0 91 f2 00 	lds	r30, 0x00F2
     f62:	f0 91 f3 00 	lds	r31, 0x00F3
     f66:	88 e3       	ldi	r24, 0x38	; 56
     f68:	80 83       	st	Z, r24
     f6a:	e0 91 ec 00 	lds	r30, 0x00EC
     f6e:	f0 91 ed 00 	lds	r31, 0x00ED
     f72:	80 81       	ld	r24, Z
     f74:	80 61       	ori	r24, 0x10	; 16
     f76:	80 83       	st	Z, r24
     f78:	e0 91 f0 00 	lds	r30, 0x00F0
     f7c:	f0 91 f1 00 	lds	r31, 0x00F1
     f80:	a0 91 ec 00 	lds	r26, 0x00EC
     f84:	b0 91 ed 00 	lds	r27, 0x00ED
     f88:	8c 91       	ld	r24, X
     f8a:	80 83       	st	Z, r24
     f8c:	83 e0       	ldi	r24, 0x03	; 3
     f8e:	08 95       	ret
     f90:	90 91 51 03 	lds	r25, 0x0351
     f94:	e0 91 ec 00 	lds	r30, 0x00EC
     f98:	f0 91 ed 00 	lds	r31, 0x00ED
     f9c:	80 81       	ld	r24, Z
     f9e:	8f 7e       	andi	r24, 0xEF	; 239
     fa0:	80 83       	st	Z, r24
     fa2:	e0 91 f0 00 	lds	r30, 0x00F0
     fa6:	f0 91 f1 00 	lds	r31, 0x00F1
     faa:	a0 91 ec 00 	lds	r26, 0x00EC
     fae:	b0 91 ed 00 	lds	r27, 0x00ED
     fb2:	8c 91       	ld	r24, X
     fb4:	80 83       	st	Z, r24
     fb6:	9f 30       	cpi	r25, 0x0F	; 15
     fb8:	08 f0       	brcs	.+2      	; 0xfbc <LI_Tick+0x16c>
     fba:	43 c1       	rjmp	.+646    	; 0x1242 <LI_Tick+0x3f2>
     fbc:	9f 5f       	subi	r25, 0xFF	; 255
     fbe:	90 93 51 03 	sts	0x0351, r25
     fc2:	19 c0       	rjmp	.+50     	; 0xff6 <LI_Tick+0x1a6>
     fc4:	81 e0       	ldi	r24, 0x01	; 1
     fc6:	80 93 51 03 	sts	0x0351, r24
     fca:	81 e0       	ldi	r24, 0x01	; 1
     fcc:	08 95       	ret
     fce:	e0 91 ec 00 	lds	r30, 0x00EC
     fd2:	f0 91 ed 00 	lds	r31, 0x00ED
     fd6:	80 81       	ld	r24, Z
     fd8:	8f 7e       	andi	r24, 0xEF	; 239
     fda:	80 83       	st	Z, r24
     fdc:	e0 91 f0 00 	lds	r30, 0x00F0
     fe0:	f0 91 f1 00 	lds	r31, 0x00F1
     fe4:	a0 91 ec 00 	lds	r26, 0x00EC
     fe8:	b0 91 ed 00 	lds	r27, 0x00ED
     fec:	8c 91       	ld	r24, X
     fee:	80 83       	st	Z, r24
     ff0:	10 92 51 03 	sts	0x0351, r1
     ff4:	90 e0       	ldi	r25, 0x00	; 0
     ff6:	e0 91 ec 00 	lds	r30, 0x00EC
     ffa:	f0 91 ed 00 	lds	r31, 0x00ED
     ffe:	80 81       	ld	r24, Z
    1000:	87 7f       	andi	r24, 0xF7	; 247
    1002:	80 83       	st	Z, r24
    1004:	e0 91 f0 00 	lds	r30, 0x00F0
    1008:	f0 91 f1 00 	lds	r31, 0x00F1
    100c:	a0 91 ec 00 	lds	r26, 0x00EC
    1010:	b0 91 ed 00 	lds	r27, 0x00ED
    1014:	8c 91       	ld	r24, X
    1016:	80 83       	st	Z, r24
    1018:	e0 91 f2 00 	lds	r30, 0x00F2
    101c:	f0 91 f3 00 	lds	r31, 0x00F3
    1020:	90 58       	subi	r25, 0x80	; 128
    1022:	90 83       	st	Z, r25
    1024:	e0 91 ec 00 	lds	r30, 0x00EC
    1028:	f0 91 ed 00 	lds	r31, 0x00ED
    102c:	80 81       	ld	r24, Z
    102e:	80 61       	ori	r24, 0x10	; 16
    1030:	80 83       	st	Z, r24
    1032:	e0 91 f0 00 	lds	r30, 0x00F0
    1036:	f0 91 f1 00 	lds	r31, 0x00F1
    103a:	a0 91 ec 00 	lds	r26, 0x00EC
    103e:	b0 91 ed 00 	lds	r27, 0x00ED
    1042:	8c 91       	ld	r24, X
    1044:	80 83       	st	Z, r24
    1046:	89 e0       	ldi	r24, 0x09	; 9
    1048:	08 95       	ret
    104a:	80 91 65 01 	lds	r24, 0x0165
    104e:	88 23       	and	r24, r24
    1050:	09 f4       	brne	.+2      	; 0x1054 <LI_Tick+0x204>
    1052:	64 cf       	rjmp	.-312    	; 0xf1c <LI_Tick+0xcc>
    1054:	10 92 66 01 	sts	0x0166, r1
    1058:	e0 91 ec 00 	lds	r30, 0x00EC
    105c:	f0 91 ed 00 	lds	r31, 0x00ED
    1060:	80 81       	ld	r24, Z
    1062:	87 7f       	andi	r24, 0xF7	; 247
    1064:	80 83       	st	Z, r24
    1066:	e0 91 f0 00 	lds	r30, 0x00F0
    106a:	f0 91 f1 00 	lds	r31, 0x00F1
    106e:	a0 91 ec 00 	lds	r26, 0x00EC
    1072:	b0 91 ed 00 	lds	r27, 0x00ED
    1076:	8c 91       	ld	r24, X
    1078:	80 83       	st	Z, r24
    107a:	e0 91 f2 00 	lds	r30, 0x00F2
    107e:	f0 91 f3 00 	lds	r31, 0x00F3
    1082:	81 e0       	ldi	r24, 0x01	; 1
    1084:	80 83       	st	Z, r24
    1086:	e0 91 ec 00 	lds	r30, 0x00EC
    108a:	f0 91 ed 00 	lds	r31, 0x00ED
    108e:	80 81       	ld	r24, Z
    1090:	80 61       	ori	r24, 0x10	; 16
    1092:	80 83       	st	Z, r24
    1094:	e0 91 f0 00 	lds	r30, 0x00F0
    1098:	f0 91 f1 00 	lds	r31, 0x00F1
    109c:	a0 91 ec 00 	lds	r26, 0x00EC
    10a0:	b0 91 ed 00 	lds	r27, 0x00ED
    10a4:	8c 91       	ld	r24, X
    10a6:	80 83       	st	Z, r24
    10a8:	88 e0       	ldi	r24, 0x08	; 8
    10aa:	08 95       	ret
    10ac:	e0 91 ec 00 	lds	r30, 0x00EC
    10b0:	f0 91 ed 00 	lds	r31, 0x00ED
    10b4:	80 81       	ld	r24, Z
    10b6:	8f 7e       	andi	r24, 0xEF	; 239
    10b8:	80 83       	st	Z, r24
    10ba:	e0 91 f0 00 	lds	r30, 0x00F0
    10be:	f0 91 f1 00 	lds	r31, 0x00F1
    10c2:	a0 91 ec 00 	lds	r26, 0x00EC
    10c6:	b0 91 ed 00 	lds	r27, 0x00ED
    10ca:	8c 91       	ld	r24, X
    10cc:	80 83       	st	Z, r24
    10ce:	e0 91 ec 00 	lds	r30, 0x00EC
    10d2:	f0 91 ed 00 	lds	r31, 0x00ED
    10d6:	80 81       	ld	r24, Z
    10d8:	87 7f       	andi	r24, 0xF7	; 247
    10da:	80 83       	st	Z, r24
    10dc:	e0 91 f0 00 	lds	r30, 0x00F0
    10e0:	f0 91 f1 00 	lds	r31, 0x00F1
    10e4:	a0 91 ec 00 	lds	r26, 0x00EC
    10e8:	b0 91 ed 00 	lds	r27, 0x00ED
    10ec:	8c 91       	ld	r24, X
    10ee:	80 83       	st	Z, r24
    10f0:	e0 91 f2 00 	lds	r30, 0x00F2
    10f4:	f0 91 f3 00 	lds	r31, 0x00F3
    10f8:	8f e0       	ldi	r24, 0x0F	; 15
    10fa:	80 83       	st	Z, r24
    10fc:	e0 91 ec 00 	lds	r30, 0x00EC
    1100:	f0 91 ed 00 	lds	r31, 0x00ED
    1104:	80 81       	ld	r24, Z
    1106:	80 61       	ori	r24, 0x10	; 16
    1108:	80 83       	st	Z, r24
    110a:	e0 91 f0 00 	lds	r30, 0x00F0
    110e:	f0 91 f1 00 	lds	r31, 0x00F1
    1112:	a0 91 ec 00 	lds	r26, 0x00EC
    1116:	b0 91 ed 00 	lds	r27, 0x00ED
    111a:	8c 91       	ld	r24, X
    111c:	80 83       	st	Z, r24
    111e:	85 e0       	ldi	r24, 0x05	; 5
    1120:	08 95       	ret
    1122:	e0 91 ec 00 	lds	r30, 0x00EC
    1126:	f0 91 ed 00 	lds	r31, 0x00ED
    112a:	80 81       	ld	r24, Z
    112c:	8f 7e       	andi	r24, 0xEF	; 239
    112e:	80 83       	st	Z, r24
    1130:	e0 91 f0 00 	lds	r30, 0x00F0
    1134:	f0 91 f1 00 	lds	r31, 0x00F1
    1138:	a0 91 ec 00 	lds	r26, 0x00EC
    113c:	b0 91 ed 00 	lds	r27, 0x00ED
    1140:	8c 91       	ld	r24, X
    1142:	80 83       	st	Z, r24
    1144:	80 91 51 03 	lds	r24, 0x0351
    1148:	e0 91 e8 00 	lds	r30, 0x00E8
    114c:	f0 91 e9 00 	lds	r31, 0x00E9
    1150:	e8 0f       	add	r30, r24
    1152:	f1 1d       	adc	r31, r1
    1154:	90 81       	ld	r25, Z
    1156:	e0 91 ec 00 	lds	r30, 0x00EC
    115a:	f0 91 ed 00 	lds	r31, 0x00ED
    115e:	80 81       	ld	r24, Z
    1160:	88 60       	ori	r24, 0x08	; 8
    1162:	80 83       	st	Z, r24
    1164:	e0 91 f0 00 	lds	r30, 0x00F0
    1168:	f0 91 f1 00 	lds	r31, 0x00F1
    116c:	a0 91 ec 00 	lds	r26, 0x00EC
    1170:	b0 91 ed 00 	lds	r27, 0x00ED
    1174:	8c 91       	ld	r24, X
    1176:	80 83       	st	Z, r24
    1178:	e0 91 f2 00 	lds	r30, 0x00F2
    117c:	f0 91 f3 00 	lds	r31, 0x00F3
    1180:	90 83       	st	Z, r25
    1182:	e0 91 ec 00 	lds	r30, 0x00EC
    1186:	f0 91 ed 00 	lds	r31, 0x00ED
    118a:	80 81       	ld	r24, Z
    118c:	80 61       	ori	r24, 0x10	; 16
    118e:	80 83       	st	Z, r24
    1190:	e0 91 f0 00 	lds	r30, 0x00F0
    1194:	f0 91 f1 00 	lds	r31, 0x00F1
    1198:	a0 91 ec 00 	lds	r26, 0x00EC
    119c:	b0 91 ed 00 	lds	r27, 0x00ED
    11a0:	8c 91       	ld	r24, X
    11a2:	80 83       	st	Z, r24
    11a4:	8a e0       	ldi	r24, 0x0A	; 10
    11a6:	08 95       	ret
    11a8:	e0 91 ec 00 	lds	r30, 0x00EC
    11ac:	f0 91 ed 00 	lds	r31, 0x00ED
    11b0:	80 81       	ld	r24, Z
    11b2:	8f 7e       	andi	r24, 0xEF	; 239
    11b4:	80 83       	st	Z, r24
    11b6:	e0 91 f0 00 	lds	r30, 0x00F0
    11ba:	f0 91 f1 00 	lds	r31, 0x00F1
    11be:	a0 91 ec 00 	lds	r26, 0x00EC
    11c2:	b0 91 ed 00 	lds	r27, 0x00ED
    11c6:	8c 91       	ld	r24, X
    11c8:	80 83       	st	Z, r24
    11ca:	e0 91 ec 00 	lds	r30, 0x00EC
    11ce:	f0 91 ed 00 	lds	r31, 0x00ED
    11d2:	80 81       	ld	r24, Z
    11d4:	87 7f       	andi	r24, 0xF7	; 247
    11d6:	80 83       	st	Z, r24
    11d8:	e0 91 f0 00 	lds	r30, 0x00F0
    11dc:	f0 91 f1 00 	lds	r31, 0x00F1
    11e0:	a0 91 ec 00 	lds	r26, 0x00EC
    11e4:	b0 91 ed 00 	lds	r27, 0x00ED
    11e8:	8c 91       	ld	r24, X
    11ea:	80 83       	st	Z, r24
    11ec:	e0 91 f2 00 	lds	r30, 0x00F2
    11f0:	f0 91 f3 00 	lds	r31, 0x00F3
    11f4:	86 e0       	ldi	r24, 0x06	; 6
    11f6:	80 83       	st	Z, r24
    11f8:	e0 91 ec 00 	lds	r30, 0x00EC
    11fc:	f0 91 ed 00 	lds	r31, 0x00ED
    1200:	80 81       	ld	r24, Z
    1202:	80 61       	ori	r24, 0x10	; 16
    1204:	80 83       	st	Z, r24
    1206:	e0 91 f0 00 	lds	r30, 0x00F0
    120a:	f0 91 f1 00 	lds	r31, 0x00F1
    120e:	a0 91 ec 00 	lds	r26, 0x00EC
    1212:	b0 91 ed 00 	lds	r27, 0x00ED
    1216:	8c 91       	ld	r24, X
    1218:	80 83       	st	Z, r24
    121a:	84 e0       	ldi	r24, 0x04	; 4
    121c:	08 95       	ret
    121e:	e0 91 ec 00 	lds	r30, 0x00EC
    1222:	f0 91 ed 00 	lds	r31, 0x00ED
    1226:	80 81       	ld	r24, Z
    1228:	8f 7e       	andi	r24, 0xEF	; 239
    122a:	80 83       	st	Z, r24
    122c:	e0 91 f0 00 	lds	r30, 0x00F0
    1230:	f0 91 f1 00 	lds	r31, 0x00F1
    1234:	a0 91 ec 00 	lds	r26, 0x00EC
    1238:	b0 91 ed 00 	lds	r27, 0x00ED
    123c:	8c 91       	ld	r24, X
    123e:	80 83       	st	Z, r24
    1240:	6d ce       	rjmp	.-806    	; 0xf1c <LI_Tick+0xcc>
    1242:	8b e0       	ldi	r24, 0x0B	; 11
    1244:	08 95       	ret
    1246:	8f 5f       	subi	r24, 0xFF	; 255
    1248:	be ce       	rjmp	.-644    	; 0xfc6 <LI_Tick+0x176>
    124a:	08 95       	ret

0000124c <TimerSet>:
    124c:	dc 01       	movw	r26, r24
    124e:	cb 01       	movw	r24, r22
    1250:	80 93 46 01 	sts	0x0146, r24
    1254:	90 93 47 01 	sts	0x0147, r25
    1258:	a0 93 48 01 	sts	0x0148, r26
    125c:	b0 93 49 01 	sts	0x0149, r27
    1260:	80 93 48 03 	sts	0x0348, r24
    1264:	90 93 49 03 	sts	0x0349, r25
    1268:	a0 93 4a 03 	sts	0x034A, r26
    126c:	b0 93 4b 03 	sts	0x034B, r27
    1270:	08 95       	ret

00001272 <TimerSetMS>:
    1272:	ab 01       	movw	r20, r22
    1274:	bc 01       	movw	r22, r24
    1276:	db 01       	movw	r26, r22
    1278:	ca 01       	movw	r24, r20
    127a:	88 0f       	add	r24, r24
    127c:	99 1f       	adc	r25, r25
    127e:	aa 1f       	adc	r26, r26
    1280:	bb 1f       	adc	r27, r27
    1282:	88 0f       	add	r24, r24
    1284:	99 1f       	adc	r25, r25
    1286:	aa 1f       	adc	r26, r26
    1288:	bb 1f       	adc	r27, r27
    128a:	84 0f       	add	r24, r20
    128c:	95 1f       	adc	r25, r21
    128e:	a6 1f       	adc	r26, r22
    1290:	b7 1f       	adc	r27, r23
    1292:	80 93 46 01 	sts	0x0146, r24
    1296:	90 93 47 01 	sts	0x0147, r25
    129a:	a0 93 48 01 	sts	0x0148, r26
    129e:	b0 93 49 01 	sts	0x0149, r27
    12a2:	80 93 48 03 	sts	0x0348, r24
    12a6:	90 93 49 03 	sts	0x0349, r25
    12aa:	a0 93 4a 03 	sts	0x034A, r26
    12ae:	b0 93 4b 03 	sts	0x034B, r27
    12b2:	08 95       	ret

000012b4 <TimerOn>:
    12b4:	8b e0       	ldi	r24, 0x0B	; 11
    12b6:	83 bf       	out	0x33, r24	; 51
    12b8:	89 e1       	ldi	r24, 0x19	; 25
    12ba:	8c bf       	out	0x3c, r24	; 60
    12bc:	82 e0       	ldi	r24, 0x02	; 2
    12be:	89 bf       	out	0x39, r24	; 57
    12c0:	12 be       	out	0x32, r1	; 50
    12c2:	80 91 46 01 	lds	r24, 0x0146
    12c6:	90 91 47 01 	lds	r25, 0x0147
    12ca:	a0 91 48 01 	lds	r26, 0x0148
    12ce:	b0 91 49 01 	lds	r27, 0x0149
    12d2:	80 93 48 03 	sts	0x0348, r24
    12d6:	90 93 49 03 	sts	0x0349, r25
    12da:	a0 93 4a 03 	sts	0x034A, r26
    12de:	b0 93 4b 03 	sts	0x034B, r27
    12e2:	8f b7       	in	r24, 0x3f	; 63
    12e4:	80 68       	ori	r24, 0x80	; 128
    12e6:	8f bf       	out	0x3f, r24	; 63
    12e8:	08 95       	ret

000012ea <TimerOff>:
    12ea:	13 be       	out	0x33, r1	; 51
    12ec:	08 95       	ret

000012ee <__vector_10>:
    12ee:	1f 92       	push	r1
    12f0:	0f 92       	push	r0
    12f2:	0f b6       	in	r0, 0x3f	; 63
    12f4:	0f 92       	push	r0
    12f6:	11 24       	eor	r1, r1
    12f8:	8f 93       	push	r24
    12fa:	9f 93       	push	r25
    12fc:	af 93       	push	r26
    12fe:	bf 93       	push	r27
    1300:	80 91 48 03 	lds	r24, 0x0348
    1304:	90 91 49 03 	lds	r25, 0x0349
    1308:	a0 91 4a 03 	lds	r26, 0x034A
    130c:	b0 91 4b 03 	lds	r27, 0x034B
    1310:	01 97       	sbiw	r24, 0x01	; 1
    1312:	a1 09       	sbc	r26, r1
    1314:	b1 09       	sbc	r27, r1
    1316:	80 93 48 03 	sts	0x0348, r24
    131a:	90 93 49 03 	sts	0x0349, r25
    131e:	a0 93 4a 03 	sts	0x034A, r26
    1322:	b0 93 4b 03 	sts	0x034B, r27
    1326:	00 97       	sbiw	r24, 0x00	; 0
    1328:	a1 05       	cpc	r26, r1
    132a:	b1 05       	cpc	r27, r1
    132c:	99 f4       	brne	.+38     	; 0x1354 <__vector_10+0x66>
    132e:	81 e0       	ldi	r24, 0x01	; 1
    1330:	80 93 4c 03 	sts	0x034C, r24
    1334:	80 91 46 01 	lds	r24, 0x0146
    1338:	90 91 47 01 	lds	r25, 0x0147
    133c:	a0 91 48 01 	lds	r26, 0x0148
    1340:	b0 91 49 01 	lds	r27, 0x0149
    1344:	80 93 48 03 	sts	0x0348, r24
    1348:	90 93 49 03 	sts	0x0349, r25
    134c:	a0 93 4a 03 	sts	0x034A, r26
    1350:	b0 93 4b 03 	sts	0x034B, r27
    1354:	bf 91       	pop	r27
    1356:	af 91       	pop	r26
    1358:	9f 91       	pop	r25
    135a:	8f 91       	pop	r24
    135c:	0f 90       	pop	r0
    135e:	0f be       	out	0x3f, r0	; 63
    1360:	0f 90       	pop	r0
    1362:	1f 90       	pop	r1
    1364:	18 95       	reti

00001366 <offsetSong>:
    1366:	16 16       	cp	r1, r22
    1368:	17 06       	cpc	r1, r23
    136a:	6c f4       	brge	.+26     	; 0x1386 <offsetSong+0x20>
    136c:	fc 01       	movw	r30, r24
    136e:	80 e0       	ldi	r24, 0x00	; 0
    1370:	90 e0       	ldi	r25, 0x00	; 0
    1372:	20 81       	ld	r18, Z
    1374:	22 23       	and	r18, r18
    1376:	11 f0       	breq	.+4      	; 0x137c <offsetSong+0x16>
    1378:	2c 5f       	subi	r18, 0xFC	; 252
    137a:	20 83       	st	Z, r18
    137c:	01 96       	adiw	r24, 0x01	; 1
    137e:	32 96       	adiw	r30, 0x02	; 2
    1380:	86 17       	cp	r24, r22
    1382:	97 07       	cpc	r25, r23
    1384:	b1 f7       	brne	.-20     	; 0x1372 <offsetSong+0xc>
    1386:	08 95       	ret

00001388 <initSongs>:
    1388:	86 e1       	ldi	r24, 0x16	; 22
    138a:	94 e0       	ldi	r25, 0x04	; 4
    138c:	90 93 77 04 	sts	0x0477, r25
    1390:	80 93 76 04 	sts	0x0476, r24
    1394:	10 92 7b 04 	sts	0x047B, r1
    1398:	10 92 7a 04 	sts	0x047A, r1
    139c:	81 e0       	ldi	r24, 0x01	; 1
    139e:	90 e0       	ldi	r25, 0x00	; 0
    13a0:	90 93 79 04 	sts	0x0479, r25
    13a4:	80 93 78 04 	sts	0x0478, r24
    13a8:	08 95       	ret

000013aa <loadLevel1>:
    13aa:	6f 92       	push	r6
    13ac:	7f 92       	push	r7
    13ae:	8f 92       	push	r8
    13b0:	9f 92       	push	r9
    13b2:	bf 92       	push	r11
    13b4:	cf 92       	push	r12
    13b6:	df 92       	push	r13
    13b8:	ef 92       	push	r14
    13ba:	ff 92       	push	r15
    13bc:	0f 93       	push	r16
    13be:	1f 93       	push	r17
    13c0:	cf 93       	push	r28
    13c2:	df 93       	push	r29
    13c4:	a0 ed       	ldi	r26, 0xD0	; 208
    13c6:	b2 e0       	ldi	r27, 0x02	; 2
    13c8:	10 92 d0 02 	sts	0x02D0, r1
    13cc:	f8 e5       	ldi	r31, 0x58	; 88
    13ce:	6f 2e       	mov	r6, r31
    13d0:	f2 e0       	ldi	r31, 0x02	; 2
    13d2:	7f 2e       	mov	r7, r31
    13d4:	81 e0       	ldi	r24, 0x01	; 1
    13d6:	80 93 58 02 	sts	0x0258, r24
    13da:	c0 ee       	ldi	r28, 0xE0	; 224
    13dc:	d1 e0       	ldi	r29, 0x01	; 1
    13de:	10 92 e0 01 	sts	0x01E0, r1
    13e2:	18 e6       	ldi	r17, 0x68	; 104
    13e4:	81 2e       	mov	r8, r17
    13e6:	11 e0       	ldi	r17, 0x01	; 1
    13e8:	91 2e       	mov	r9, r17
    13ea:	80 93 68 01 	sts	0x0168, r24
    13ee:	10 92 d1 02 	sts	0x02D1, r1
    13f2:	80 93 59 02 	sts	0x0259, r24
    13f6:	10 92 e1 01 	sts	0x01E1, r1
    13fa:	80 93 69 01 	sts	0x0169, r24
    13fe:	30 e4       	ldi	r19, 0x40	; 64
    1400:	30 93 d2 02 	sts	0x02D2, r19
    1404:	01 e4       	ldi	r16, 0x41	; 65
    1406:	00 93 5a 02 	sts	0x025A, r16
    140a:	30 93 e2 01 	sts	0x01E2, r19
    140e:	80 93 6a 01 	sts	0x016A, r24
    1412:	50 ec       	ldi	r21, 0xC0	; 192
    1414:	50 93 d3 02 	sts	0x02D3, r21
    1418:	91 ec       	ldi	r25, 0xC1	; 193
    141a:	d9 2e       	mov	r13, r25
    141c:	d0 92 5b 02 	sts	0x025B, r13
    1420:	50 93 e3 01 	sts	0x01E3, r21
    1424:	80 93 6b 01 	sts	0x016B, r24
    1428:	30 93 d4 02 	sts	0x02D4, r19
    142c:	00 93 5c 02 	sts	0x025C, r16
    1430:	30 93 e4 01 	sts	0x01E4, r19
    1434:	80 93 6c 01 	sts	0x016C, r24
    1438:	10 92 d5 02 	sts	0x02D5, r1
    143c:	80 93 5d 02 	sts	0x025D, r24
    1440:	10 92 e5 01 	sts	0x01E5, r1
    1444:	80 93 6d 01 	sts	0x016D, r24
    1448:	10 92 d6 02 	sts	0x02D6, r1
    144c:	80 93 5e 02 	sts	0x025E, r24
    1450:	10 92 e6 01 	sts	0x01E6, r1
    1454:	80 93 6e 01 	sts	0x016E, r24
    1458:	78 e0       	ldi	r23, 0x08	; 8
    145a:	70 93 d7 02 	sts	0x02D7, r23
    145e:	29 e0       	ldi	r18, 0x09	; 9
    1460:	20 93 5f 02 	sts	0x025F, r18
    1464:	10 92 e7 01 	sts	0x01E7, r1
    1468:	20 93 6f 01 	sts	0x016F, r18
    146c:	10 92 d8 02 	sts	0x02D8, r1
    1470:	80 93 60 02 	sts	0x0260, r24
    1474:	10 92 e8 01 	sts	0x01E8, r1
    1478:	80 93 70 01 	sts	0x0170, r24
    147c:	70 93 d9 02 	sts	0x02D9, r23
    1480:	20 93 61 02 	sts	0x0261, r18
    1484:	10 92 e9 01 	sts	0x01E9, r1
    1488:	20 93 71 01 	sts	0x0171, r18
    148c:	48 e2       	ldi	r20, 0x28	; 40
    148e:	b4 2e       	mov	r11, r20
    1490:	b0 92 da 02 	sts	0x02DA, r11
    1494:	69 e2       	ldi	r22, 0x29	; 41
    1496:	f6 2e       	mov	r15, r22
    1498:	f0 92 62 02 	sts	0x0262, r15
    149c:	10 92 ea 01 	sts	0x01EA, r1
    14a0:	f0 92 72 01 	sts	0x0172, r15
    14a4:	70 93 db 02 	sts	0x02DB, r23
    14a8:	20 93 63 02 	sts	0x0263, r18
    14ac:	10 92 eb 01 	sts	0x01EB, r1
    14b0:	20 93 73 01 	sts	0x0173, r18
    14b4:	10 92 dc 02 	sts	0x02DC, r1
    14b8:	80 93 64 02 	sts	0x0264, r24
    14bc:	10 92 ec 01 	sts	0x01EC, r1
    14c0:	80 93 74 01 	sts	0x0174, r24
    14c4:	10 92 dd 02 	sts	0x02DD, r1
    14c8:	80 93 65 02 	sts	0x0265, r24
    14cc:	10 92 ed 01 	sts	0x01ED, r1
    14d0:	80 93 75 01 	sts	0x0175, r24
    14d4:	10 92 de 02 	sts	0x02DE, r1
    14d8:	80 93 66 02 	sts	0x0266, r24
    14dc:	10 92 ee 01 	sts	0x01EE, r1
    14e0:	80 93 76 01 	sts	0x0176, r24
    14e4:	10 92 df 02 	sts	0x02DF, r1
    14e8:	80 93 67 02 	sts	0x0267, r24
    14ec:	10 92 ef 01 	sts	0x01EF, r1
    14f0:	80 93 77 01 	sts	0x0177, r24
    14f4:	e0 e8       	ldi	r30, 0x80	; 128
    14f6:	ce 2e       	mov	r12, r30
    14f8:	c0 92 e0 02 	sts	0x02E0, r12
    14fc:	97 e8       	ldi	r25, 0x87	; 135
    14fe:	90 93 68 02 	sts	0x0268, r25
    1502:	c0 92 f0 01 	sts	0x01F0, r12
    1506:	47 e0       	ldi	r20, 0x07	; 7
    1508:	40 93 78 01 	sts	0x0178, r20
    150c:	50 93 e1 02 	sts	0x02E1, r21
    1510:	97 ec       	ldi	r25, 0xC7	; 199
    1512:	90 93 69 02 	sts	0x0269, r25
    1516:	50 93 f1 01 	sts	0x01F1, r21
    151a:	40 93 79 01 	sts	0x0179, r20
    151e:	30 93 e2 02 	sts	0x02E2, r19
    1522:	00 93 6a 02 	sts	0x026A, r16
    1526:	30 93 f2 01 	sts	0x01F2, r19
    152a:	80 93 7a 01 	sts	0x017A, r24
    152e:	10 92 e3 02 	sts	0x02E3, r1
    1532:	80 93 6b 02 	sts	0x026B, r24
    1536:	10 92 f3 01 	sts	0x01F3, r1
    153a:	80 93 7b 01 	sts	0x017B, r24
    153e:	10 92 e4 02 	sts	0x02E4, r1
    1542:	80 93 6c 02 	sts	0x026C, r24
    1546:	10 92 f4 01 	sts	0x01F4, r1
    154a:	80 93 7c 01 	sts	0x017C, r24
    154e:	10 92 e5 02 	sts	0x02E5, r1
    1552:	9f e0       	ldi	r25, 0x0F	; 15
    1554:	90 93 6d 02 	sts	0x026D, r25
    1558:	10 92 f5 01 	sts	0x01F5, r1
    155c:	90 93 7d 01 	sts	0x017D, r25
    1560:	10 92 e6 02 	sts	0x02E6, r1
    1564:	90 93 6e 02 	sts	0x026E, r25
    1568:	10 92 f6 01 	sts	0x01F6, r1
    156c:	90 93 7e 01 	sts	0x017E, r25
    1570:	10 92 e7 02 	sts	0x02E7, r1
    1574:	80 93 6f 02 	sts	0x026F, r24
    1578:	10 92 f7 01 	sts	0x01F7, r1
    157c:	80 93 7f 01 	sts	0x017F, r24
    1580:	10 92 e8 02 	sts	0x02E8, r1
    1584:	80 93 70 02 	sts	0x0270, r24
    1588:	10 92 f8 01 	sts	0x01F8, r1
    158c:	80 93 80 01 	sts	0x0180, r24
    1590:	10 92 e9 02 	sts	0x02E9, r1
    1594:	90 93 71 02 	sts	0x0271, r25
    1598:	10 92 f9 01 	sts	0x01F9, r1
    159c:	90 93 81 01 	sts	0x0181, r25
    15a0:	10 92 ea 02 	sts	0x02EA, r1
    15a4:	90 93 72 02 	sts	0x0272, r25
    15a8:	10 92 fa 01 	sts	0x01FA, r1
    15ac:	90 93 82 01 	sts	0x0182, r25
    15b0:	10 92 eb 02 	sts	0x02EB, r1
    15b4:	80 93 73 02 	sts	0x0273, r24
    15b8:	10 92 fb 01 	sts	0x01FB, r1
    15bc:	80 93 83 01 	sts	0x0183, r24
    15c0:	10 92 ec 02 	sts	0x02EC, r1
    15c4:	80 93 74 02 	sts	0x0274, r24
    15c8:	10 92 fc 01 	sts	0x01FC, r1
    15cc:	80 93 84 01 	sts	0x0184, r24
    15d0:	10 92 ed 02 	sts	0x02ED, r1
    15d4:	90 93 75 02 	sts	0x0275, r25
    15d8:	10 92 fd 01 	sts	0x01FD, r1
    15dc:	90 93 85 01 	sts	0x0185, r25
    15e0:	10 92 ee 02 	sts	0x02EE, r1
    15e4:	90 93 76 02 	sts	0x0276, r25
    15e8:	10 92 fe 01 	sts	0x01FE, r1
    15ec:	90 93 86 01 	sts	0x0186, r25
    15f0:	10 92 ef 02 	sts	0x02EF, r1
    15f4:	80 93 77 02 	sts	0x0277, r24
    15f8:	10 92 ff 01 	sts	0x01FF, r1
    15fc:	80 93 87 01 	sts	0x0187, r24
    1600:	10 92 f0 02 	sts	0x02F0, r1
    1604:	80 93 78 02 	sts	0x0278, r24
    1608:	10 92 00 02 	sts	0x0200, r1
    160c:	80 93 88 01 	sts	0x0188, r24
    1610:	70 93 f1 02 	sts	0x02F1, r23
    1614:	20 93 79 02 	sts	0x0279, r18
    1618:	10 92 01 02 	sts	0x0201, r1
    161c:	20 93 89 01 	sts	0x0189, r18
    1620:	10 92 f2 02 	sts	0x02F2, r1
    1624:	80 93 7a 02 	sts	0x027A, r24
    1628:	10 92 02 02 	sts	0x0202, r1
    162c:	80 93 8a 01 	sts	0x018A, r24
    1630:	10 92 f3 02 	sts	0x02F3, r1
    1634:	80 93 7b 02 	sts	0x027B, r24
    1638:	10 92 03 02 	sts	0x0203, r1
    163c:	80 93 8b 01 	sts	0x018B, r24
    1640:	30 93 f4 02 	sts	0x02F4, r19
    1644:	00 93 7c 02 	sts	0x027C, r16
    1648:	30 93 04 02 	sts	0x0204, r19
    164c:	80 93 8c 01 	sts	0x018C, r24
    1650:	50 93 f5 02 	sts	0x02F5, r21
    1654:	d0 92 7d 02 	sts	0x027D, r13
    1658:	50 93 05 02 	sts	0x0205, r21
    165c:	80 93 8d 01 	sts	0x018D, r24
    1660:	10 ee       	ldi	r17, 0xE0	; 224
    1662:	10 93 f6 02 	sts	0x02F6, r17
    1666:	10 93 7e 02 	sts	0x027E, r17
    166a:	10 93 06 02 	sts	0x0206, r17
    166e:	10 92 8e 01 	sts	0x018E, r1
    1672:	30 93 f7 02 	sts	0x02F7, r19
    1676:	30 93 7f 02 	sts	0x027F, r19
    167a:	30 93 07 02 	sts	0x0207, r19
    167e:	10 92 8f 01 	sts	0x018F, r1
    1682:	10 92 f8 02 	sts	0x02F8, r1
    1686:	80 93 80 02 	sts	0x0280, r24
    168a:	10 92 08 02 	sts	0x0208, r1
    168e:	80 93 90 01 	sts	0x0190, r24
    1692:	f4 e0       	ldi	r31, 0x04	; 4
    1694:	ef 2e       	mov	r14, r31
    1696:	e0 92 f9 02 	sts	0x02F9, r14
    169a:	65 e0       	ldi	r22, 0x05	; 5
    169c:	60 93 81 02 	sts	0x0281, r22
    16a0:	10 92 09 02 	sts	0x0209, r1
    16a4:	60 93 91 01 	sts	0x0191, r22
    16a8:	e0 92 fa 02 	sts	0x02FA, r14
    16ac:	60 93 82 02 	sts	0x0282, r22
    16b0:	10 92 0a 02 	sts	0x020A, r1
    16b4:	60 93 92 01 	sts	0x0192, r22
    16b8:	60 e1       	ldi	r22, 0x10	; 16
    16ba:	e6 2e       	mov	r14, r22
    16bc:	e0 92 fb 02 	sts	0x02FB, r14
    16c0:	61 e1       	ldi	r22, 0x11	; 17
    16c2:	60 93 83 02 	sts	0x0283, r22
    16c6:	10 92 0b 02 	sts	0x020B, r1
    16ca:	60 93 93 01 	sts	0x0193, r22
    16ce:	e0 92 fc 02 	sts	0x02FC, r14
    16d2:	60 93 84 02 	sts	0x0284, r22
    16d6:	10 92 0c 02 	sts	0x020C, r1
    16da:	60 93 94 01 	sts	0x0194, r22
    16de:	e0 92 fd 02 	sts	0x02FD, r14
    16e2:	60 93 85 02 	sts	0x0285, r22
    16e6:	10 92 0d 02 	sts	0x020D, r1
    16ea:	60 93 95 01 	sts	0x0195, r22
    16ee:	e0 92 fe 02 	sts	0x02FE, r14
    16f2:	60 93 86 02 	sts	0x0286, r22
    16f6:	10 92 0e 02 	sts	0x020E, r1
    16fa:	60 93 96 01 	sts	0x0196, r22
    16fe:	10 92 ff 02 	sts	0x02FF, r1
    1702:	80 93 87 02 	sts	0x0287, r24
    1706:	10 92 0f 02 	sts	0x020F, r1
    170a:	80 93 97 01 	sts	0x0197, r24
    170e:	10 92 00 03 	sts	0x0300, r1
    1712:	80 93 88 02 	sts	0x0288, r24
    1716:	10 92 10 02 	sts	0x0210, r1
    171a:	80 93 98 01 	sts	0x0198, r24
    171e:	10 92 01 03 	sts	0x0301, r1
    1722:	10 92 89 02 	sts	0x0289, r1
    1726:	10 92 11 02 	sts	0x0211, r1
    172a:	10 92 99 01 	sts	0x0199, r1
    172e:	10 92 02 03 	sts	0x0302, r1
    1732:	10 92 8a 02 	sts	0x028A, r1
    1736:	10 92 12 02 	sts	0x0212, r1
    173a:	10 92 9a 01 	sts	0x019A, r1
    173e:	10 92 03 03 	sts	0x0303, r1
    1742:	10 92 8b 02 	sts	0x028B, r1
    1746:	10 92 13 02 	sts	0x0213, r1
    174a:	10 92 9b 01 	sts	0x019B, r1
    174e:	e0 92 04 03 	sts	0x0304, r14
    1752:	60 93 8c 02 	sts	0x028C, r22
    1756:	10 92 14 02 	sts	0x0214, r1
    175a:	60 93 9c 01 	sts	0x019C, r22
    175e:	64 e1       	ldi	r22, 0x14	; 20
    1760:	60 93 05 03 	sts	0x0305, r22
    1764:	65 e1       	ldi	r22, 0x15	; 21
    1766:	60 93 8d 02 	sts	0x028D, r22
    176a:	10 92 15 02 	sts	0x0215, r1
    176e:	60 93 9d 01 	sts	0x019D, r22
    1772:	10 92 06 03 	sts	0x0306, r1
    1776:	80 93 8e 02 	sts	0x028E, r24
    177a:	10 92 16 02 	sts	0x0216, r1
    177e:	80 93 9e 01 	sts	0x019E, r24
    1782:	10 92 07 03 	sts	0x0307, r1
    1786:	80 93 8f 02 	sts	0x028F, r24
    178a:	10 92 17 02 	sts	0x0217, r1
    178e:	80 93 9f 01 	sts	0x019F, r24
    1792:	68 e4       	ldi	r22, 0x48	; 72
    1794:	60 93 08 03 	sts	0x0308, r22
    1798:	69 e4       	ldi	r22, 0x49	; 73
    179a:	60 93 90 02 	sts	0x0290, r22
    179e:	30 93 18 02 	sts	0x0218, r19
    17a2:	20 93 a0 01 	sts	0x01A0, r18
    17a6:	68 ec       	ldi	r22, 0xC8	; 200
    17a8:	60 93 09 03 	sts	0x0309, r22
    17ac:	69 ec       	ldi	r22, 0xC9	; 201
    17ae:	60 93 91 02 	sts	0x0291, r22
    17b2:	50 93 19 02 	sts	0x0219, r21
    17b6:	20 93 a1 01 	sts	0x01A1, r18
    17ba:	50 93 0a 03 	sts	0x030A, r21
    17be:	d0 92 92 02 	sts	0x0292, r13
    17c2:	50 93 1a 02 	sts	0x021A, r21
    17c6:	80 93 a2 01 	sts	0x01A2, r24
    17ca:	c0 92 0b 03 	sts	0x030B, r12
    17ce:	61 e8       	ldi	r22, 0x81	; 129
    17d0:	60 93 93 02 	sts	0x0293, r22
    17d4:	c0 92 1b 02 	sts	0x021B, r12
    17d8:	80 93 a3 01 	sts	0x01A3, r24
    17dc:	70 93 0c 03 	sts	0x030C, r23
    17e0:	20 93 94 02 	sts	0x0294, r18
    17e4:	10 92 1c 02 	sts	0x021C, r1
    17e8:	20 93 a4 01 	sts	0x01A4, r18
    17ec:	dd 96       	adiw	r26, 0x3d	; 61
    17ee:	1c 92       	st	X, r1
    17f0:	dd 97       	sbiw	r26, 0x3d	; 61
    17f2:	f3 01       	movw	r30, r6
    17f4:	85 af       	sts	0x75, r24
    17f6:	1d ae       	sts	0xbd, r17
    17f8:	f4 01       	movw	r30, r8
    17fa:	85 af       	sts	0x75, r24
    17fc:	de 96       	adiw	r26, 0x3e	; 62
    17fe:	bc 92       	st	X, r11
    1800:	de 97       	sbiw	r26, 0x3e	; 62
    1802:	f3 01       	movw	r30, r6
    1804:	f6 ae       	sts	0xb6, r31
    1806:	1e ae       	sts	0xbe, r17
    1808:	f4 01       	movw	r30, r8
    180a:	f6 ae       	sts	0xb6, r31
    180c:	df 96       	adiw	r26, 0x3f	; 63
    180e:	1c 92       	st	X, r1
    1810:	f3 01       	movw	r30, r6
    1812:	87 af       	sts	0x77, r24
    1814:	1f ae       	sts	0xbf, r17
    1816:	f4 01       	movw	r30, r8
    1818:	87 af       	sts	0x77, r24
    181a:	70 93 10 03 	sts	0x0310, r23
    181e:	20 93 98 02 	sts	0x0298, r18
    1822:	10 92 20 02 	sts	0x0220, r1
    1826:	20 93 a8 01 	sts	0x01A8, r18
    182a:	10 92 11 03 	sts	0x0311, r1
    182e:	80 93 99 02 	sts	0x0299, r24
    1832:	10 92 21 02 	sts	0x0221, r1
    1836:	80 93 a9 01 	sts	0x01A9, r24
    183a:	10 92 12 03 	sts	0x0312, r1
    183e:	80 93 9a 02 	sts	0x029A, r24
    1842:	10 92 22 02 	sts	0x0222, r1
    1846:	80 93 aa 01 	sts	0x01AA, r24
    184a:	e0 e2       	ldi	r30, 0x20	; 32
    184c:	e0 93 13 03 	sts	0x0313, r30
    1850:	61 e2       	ldi	r22, 0x21	; 33
    1852:	60 93 9b 02 	sts	0x029B, r22
    1856:	10 92 23 02 	sts	0x0223, r1
    185a:	60 93 ab 01 	sts	0x01AB, r22
    185e:	e0 93 14 03 	sts	0x0314, r30
    1862:	60 93 9c 02 	sts	0x029C, r22
    1866:	10 92 24 02 	sts	0x0224, r1
    186a:	60 93 ac 01 	sts	0x01AC, r22
    186e:	10 92 15 03 	sts	0x0315, r1
    1872:	80 93 9d 02 	sts	0x029D, r24
    1876:	10 92 25 02 	sts	0x0225, r1
    187a:	80 93 ad 01 	sts	0x01AD, r24
    187e:	10 92 16 03 	sts	0x0316, r1
    1882:	80 93 9e 02 	sts	0x029E, r24
    1886:	10 92 26 02 	sts	0x0226, r1
    188a:	80 93 ae 01 	sts	0x01AE, r24
    188e:	b0 92 17 03 	sts	0x0317, r11
    1892:	f0 92 9f 02 	sts	0x029F, r15
    1896:	10 92 27 02 	sts	0x0227, r1
    189a:	f0 92 af 01 	sts	0x01AF, r15
    189e:	e0 93 18 03 	sts	0x0318, r30
    18a2:	60 93 a0 02 	sts	0x02A0, r22
    18a6:	10 92 28 02 	sts	0x0228, r1
    18aa:	60 93 b0 01 	sts	0x01B0, r22
    18ae:	10 92 19 03 	sts	0x0319, r1
    18b2:	80 93 a1 02 	sts	0x02A1, r24
    18b6:	10 92 29 02 	sts	0x0229, r1
    18ba:	80 93 b1 01 	sts	0x01B1, r24
    18be:	10 92 1a 03 	sts	0x031A, r1
    18c2:	80 93 a2 02 	sts	0x02A2, r24
    18c6:	10 92 2a 02 	sts	0x022A, r1
    18ca:	80 93 b2 01 	sts	0x01B2, r24
    18ce:	a2 e0       	ldi	r26, 0x02	; 2
    18d0:	a0 93 1b 03 	sts	0x031B, r26
    18d4:	63 e0       	ldi	r22, 0x03	; 3
    18d6:	60 93 a3 02 	sts	0x02A3, r22
    18da:	10 92 2b 02 	sts	0x022B, r1
    18de:	60 93 b3 01 	sts	0x01B3, r22
    18e2:	f6 e0       	ldi	r31, 0x06	; 6
    18e4:	f0 93 1c 03 	sts	0x031C, r31
    18e8:	40 93 a4 02 	sts	0x02A4, r20
    18ec:	10 92 2c 02 	sts	0x022C, r1
    18f0:	40 93 b4 01 	sts	0x01B4, r20
    18f4:	ee e0       	ldi	r30, 0x0E	; 14
    18f6:	e0 93 1d 03 	sts	0x031D, r30
    18fa:	90 93 a5 02 	sts	0x02A5, r25
    18fe:	10 92 2d 02 	sts	0x022D, r1
    1902:	90 93 b5 01 	sts	0x01B5, r25
    1906:	10 92 1e 03 	sts	0x031E, r1
    190a:	80 93 a6 02 	sts	0x02A6, r24
    190e:	10 92 2e 02 	sts	0x022E, r1
    1912:	80 93 b6 01 	sts	0x01B6, r24
    1916:	e0 93 1f 03 	sts	0x031F, r30
    191a:	90 93 a7 02 	sts	0x02A7, r25
    191e:	10 92 2f 02 	sts	0x022F, r1
    1922:	90 93 b7 01 	sts	0x01B7, r25
    1926:	f0 93 20 03 	sts	0x0320, r31
    192a:	40 93 a8 02 	sts	0x02A8, r20
    192e:	10 92 30 02 	sts	0x0230, r1
    1932:	40 93 b8 01 	sts	0x01B8, r20
    1936:	b2 e4       	ldi	r27, 0x42	; 66
    1938:	b0 93 21 03 	sts	0x0321, r27
    193c:	b3 e4       	ldi	r27, 0x43	; 67
    193e:	b0 93 a9 02 	sts	0x02A9, r27
    1942:	30 93 31 02 	sts	0x0231, r19
    1946:	60 93 b9 01 	sts	0x01B9, r22
    194a:	50 93 22 03 	sts	0x0322, r21
    194e:	d0 92 aa 02 	sts	0x02AA, r13
    1952:	50 93 32 02 	sts	0x0232, r21
    1956:	80 93 ba 01 	sts	0x01BA, r24
    195a:	30 93 23 03 	sts	0x0323, r19
    195e:	00 93 ab 02 	sts	0x02AB, r16
    1962:	30 93 33 02 	sts	0x0233, r19
    1966:	80 93 bb 01 	sts	0x01BB, r24
    196a:	a0 93 24 03 	sts	0x0324, r26
    196e:	60 93 ac 02 	sts	0x02AC, r22
    1972:	10 92 34 02 	sts	0x0234, r1
    1976:	60 93 bc 01 	sts	0x01BC, r22
    197a:	f0 93 25 03 	sts	0x0325, r31
    197e:	40 93 ad 02 	sts	0x02AD, r20
    1982:	10 92 35 02 	sts	0x0235, r1
    1986:	40 93 bd 01 	sts	0x01BD, r20
    198a:	e0 93 26 03 	sts	0x0326, r30
    198e:	90 93 ae 02 	sts	0x02AE, r25
    1992:	10 92 36 02 	sts	0x0236, r1
    1996:	90 93 be 01 	sts	0x01BE, r25
    199a:	e0 93 27 03 	sts	0x0327, r30
    199e:	90 93 af 02 	sts	0x02AF, r25
    19a2:	10 92 37 02 	sts	0x0237, r1
    19a6:	90 93 bf 01 	sts	0x01BF, r25
    19aa:	10 92 28 03 	sts	0x0328, r1
    19ae:	10 92 b0 02 	sts	0x02B0, r1
    19b2:	10 92 38 02 	sts	0x0238, r1
    19b6:	10 92 c0 01 	sts	0x01C0, r1
    19ba:	e0 93 29 03 	sts	0x0329, r30
    19be:	90 93 b1 02 	sts	0x02B1, r25
    19c2:	10 92 39 02 	sts	0x0239, r1
    19c6:	90 93 c1 01 	sts	0x01C1, r25
    19ca:	f0 93 2a 03 	sts	0x032A, r31
    19ce:	40 93 b2 02 	sts	0x02B2, r20
    19d2:	10 92 3a 02 	sts	0x023A, r1
    19d6:	40 93 c2 01 	sts	0x01C2, r20
    19da:	a0 93 2b 03 	sts	0x032B, r26
    19de:	60 93 b3 02 	sts	0x02B3, r22
    19e2:	10 92 3b 02 	sts	0x023B, r1
    19e6:	60 93 c3 01 	sts	0x01C3, r22
    19ea:	10 92 2c 03 	sts	0x032C, r1
    19ee:	80 93 b4 02 	sts	0x02B4, r24
    19f2:	10 92 3c 02 	sts	0x023C, r1
    19f6:	80 93 c4 01 	sts	0x01C4, r24
    19fa:	10 92 2d 03 	sts	0x032D, r1
    19fe:	40 93 b5 02 	sts	0x02B5, r20
    1a02:	10 92 3d 02 	sts	0x023D, r1
    1a06:	40 93 c5 01 	sts	0x01C5, r20
    1a0a:	10 92 2e 03 	sts	0x032E, r1
    1a0e:	40 93 b6 02 	sts	0x02B6, r20
    1a12:	10 92 3e 02 	sts	0x023E, r1
    1a16:	40 93 c6 01 	sts	0x01C6, r20
    1a1a:	10 92 2f 03 	sts	0x032F, r1
    1a1e:	80 93 b7 02 	sts	0x02B7, r24
    1a22:	10 92 3f 02 	sts	0x023F, r1
    1a26:	80 93 c7 01 	sts	0x01C7, r24
    1a2a:	10 92 30 03 	sts	0x0330, r1
    1a2e:	80 93 b8 02 	sts	0x02B8, r24
    1a32:	10 92 40 02 	sts	0x0240, r1
    1a36:	80 93 c8 01 	sts	0x01C8, r24
    1a3a:	70 93 31 03 	sts	0x0331, r23
    1a3e:	20 93 b9 02 	sts	0x02B9, r18
    1a42:	10 92 41 02 	sts	0x0241, r1
    1a46:	20 93 c9 01 	sts	0x01C9, r18
    1a4a:	70 93 32 03 	sts	0x0332, r23
    1a4e:	20 93 ba 02 	sts	0x02BA, r18
    1a52:	10 92 42 02 	sts	0x0242, r1
    1a56:	20 93 ca 01 	sts	0x01CA, r18
    1a5a:	10 92 33 03 	sts	0x0333, r1
    1a5e:	80 93 bb 02 	sts	0x02BB, r24
    1a62:	10 92 43 02 	sts	0x0243, r1
    1a66:	80 93 cb 01 	sts	0x01CB, r24
    1a6a:	10 92 34 03 	sts	0x0334, r1
    1a6e:	80 93 bc 02 	sts	0x02BC, r24
    1a72:	10 92 44 02 	sts	0x0244, r1
    1a76:	80 93 cc 01 	sts	0x01CC, r24
    1a7a:	a0 93 35 03 	sts	0x0335, r26
    1a7e:	60 93 bd 02 	sts	0x02BD, r22
    1a82:	10 92 45 02 	sts	0x0245, r1
    1a86:	60 93 cd 01 	sts	0x01CD, r22
    1a8a:	f0 93 36 03 	sts	0x0336, r31
    1a8e:	40 93 be 02 	sts	0x02BE, r20
    1a92:	10 92 46 02 	sts	0x0246, r1
    1a96:	40 93 ce 01 	sts	0x01CE, r20
    1a9a:	e0 93 37 03 	sts	0x0337, r30
    1a9e:	90 93 bf 02 	sts	0x02BF, r25
    1aa2:	10 92 47 02 	sts	0x0247, r1
    1aa6:	90 93 cf 01 	sts	0x01CF, r25
    1aaa:	5e e1       	ldi	r21, 0x1E	; 30
    1aac:	50 93 38 03 	sts	0x0338, r21
    1ab0:	4f e1       	ldi	r20, 0x1F	; 31
    1ab2:	40 93 c0 02 	sts	0x02C0, r20
    1ab6:	10 92 48 02 	sts	0x0248, r1
    1aba:	40 93 d0 01 	sts	0x01D0, r20
    1abe:	10 92 39 03 	sts	0x0339, r1
    1ac2:	80 93 c1 02 	sts	0x02C1, r24
    1ac6:	10 92 49 02 	sts	0x0249, r1
    1aca:	80 93 d1 01 	sts	0x01D1, r24
    1ace:	10 92 3a 03 	sts	0x033A, r1
    1ad2:	80 93 c2 02 	sts	0x02C2, r24
    1ad6:	10 92 4a 02 	sts	0x024A, r1
    1ada:	80 93 d2 01 	sts	0x01D2, r24
    1ade:	10 92 3b 03 	sts	0x033B, r1
    1ae2:	80 93 c3 02 	sts	0x02C3, r24
    1ae6:	10 92 4b 02 	sts	0x024B, r1
    1aea:	80 93 d3 01 	sts	0x01D3, r24
    1aee:	10 92 3c 03 	sts	0x033C, r1
    1af2:	80 93 c4 02 	sts	0x02C4, r24
    1af6:	10 92 4c 02 	sts	0x024C, r1
    1afa:	80 93 d4 01 	sts	0x01D4, r24
    1afe:	10 92 3d 03 	sts	0x033D, r1
    1b02:	80 93 c5 02 	sts	0x02C5, r24
    1b06:	10 92 4d 02 	sts	0x024D, r1
    1b0a:	80 93 d5 01 	sts	0x01D5, r24
    1b0e:	30 93 3e 03 	sts	0x033E, r19
    1b12:	00 93 c6 02 	sts	0x02C6, r16
    1b16:	30 93 4e 02 	sts	0x024E, r19
    1b1a:	80 93 d6 01 	sts	0x01D6, r24
    1b1e:	10 93 3f 03 	sts	0x033F, r17
    1b22:	61 ee       	ldi	r22, 0xE1	; 225
    1b24:	60 93 c7 02 	sts	0x02C7, r22
    1b28:	10 93 4f 02 	sts	0x024F, r17
    1b2c:	80 93 d7 01 	sts	0x01D7, r24
    1b30:	10 93 40 03 	sts	0x0340, r17
    1b34:	60 93 c8 02 	sts	0x02C8, r22
    1b38:	10 93 50 02 	sts	0x0250, r17
    1b3c:	80 93 d8 01 	sts	0x01D8, r24
    1b40:	6e e4       	ldi	r22, 0x4E	; 78
    1b42:	60 93 41 03 	sts	0x0341, r22
    1b46:	6f e4       	ldi	r22, 0x4F	; 79
    1b48:	60 93 c9 02 	sts	0x02C9, r22
    1b4c:	30 93 51 02 	sts	0x0251, r19
    1b50:	20 93 d9 01 	sts	0x01D9, r18
    1b54:	50 93 42 03 	sts	0x0342, r21
    1b58:	40 93 ca 02 	sts	0x02CA, r20
    1b5c:	10 92 52 02 	sts	0x0252, r1
    1b60:	29 e1       	ldi	r18, 0x19	; 25
    1b62:	20 93 da 01 	sts	0x01DA, r18
    1b66:	38 e1       	ldi	r19, 0x18	; 24
    1b68:	30 93 43 03 	sts	0x0343, r19
    1b6c:	20 93 cb 02 	sts	0x02CB, r18
    1b70:	10 92 53 02 	sts	0x0253, r1
    1b74:	20 93 db 01 	sts	0x01DB, r18
    1b78:	50 93 44 03 	sts	0x0344, r21
    1b7c:	40 93 cc 02 	sts	0x02CC, r20
    1b80:	10 92 54 02 	sts	0x0254, r1
    1b84:	40 93 dc 01 	sts	0x01DC, r20
    1b88:	e0 93 45 03 	sts	0x0345, r30
    1b8c:	90 93 cd 02 	sts	0x02CD, r25
    1b90:	10 92 55 02 	sts	0x0255, r1
    1b94:	90 93 dd 01 	sts	0x01DD, r25
    1b98:	10 92 46 03 	sts	0x0346, r1
    1b9c:	80 93 ce 02 	sts	0x02CE, r24
    1ba0:	10 92 56 02 	sts	0x0256, r1
    1ba4:	80 93 de 01 	sts	0x01DE, r24
    1ba8:	10 92 47 03 	sts	0x0347, r1
    1bac:	80 93 cf 02 	sts	0x02CF, r24
    1bb0:	10 92 57 02 	sts	0x0257, r1
    1bb4:	80 93 df 01 	sts	0x01DF, r24
    1bb8:	df 91       	pop	r29
    1bba:	cf 91       	pop	r28
    1bbc:	1f 91       	pop	r17
    1bbe:	0f 91       	pop	r16
    1bc0:	ff 90       	pop	r15
    1bc2:	ef 90       	pop	r14
    1bc4:	df 90       	pop	r13
    1bc6:	cf 90       	pop	r12
    1bc8:	bf 90       	pop	r11
    1bca:	9f 90       	pop	r9
    1bcc:	8f 90       	pop	r8
    1bce:	7f 90       	pop	r7
    1bd0:	6f 90       	pop	r6
    1bd2:	08 95       	ret

00001bd4 <loadLevel2>:
    1bd4:	af 92       	push	r10
    1bd6:	bf 92       	push	r11
    1bd8:	df 92       	push	r13
    1bda:	ef 92       	push	r14
    1bdc:	ff 92       	push	r15
    1bde:	0f 93       	push	r16
    1be0:	1f 93       	push	r17
    1be2:	cf 93       	push	r28
    1be4:	df 93       	push	r29
    1be6:	a0 ed       	ldi	r26, 0xD0	; 208
    1be8:	b2 e0       	ldi	r27, 0x02	; 2
    1bea:	10 92 d0 02 	sts	0x02D0, r1
    1bee:	78 e5       	ldi	r23, 0x58	; 88
    1bf0:	a7 2e       	mov	r10, r23
    1bf2:	72 e0       	ldi	r23, 0x02	; 2
    1bf4:	b7 2e       	mov	r11, r23
    1bf6:	10 92 58 02 	sts	0x0258, r1
    1bfa:	c0 ee       	ldi	r28, 0xE0	; 224
    1bfc:	d1 e0       	ldi	r29, 0x01	; 1
    1bfe:	ff 24       	eor	r15, r15
    1c00:	fa 94       	dec	r15
    1c02:	f0 92 e0 01 	sts	0x01E0, r15
    1c06:	88 e6       	ldi	r24, 0x68	; 104
    1c08:	91 e0       	ldi	r25, 0x01	; 1
    1c0a:	f0 92 68 01 	sts	0x0168, r15
    1c0e:	10 92 d1 02 	sts	0x02D1, r1
    1c12:	10 92 59 02 	sts	0x0259, r1
    1c16:	21 e0       	ldi	r18, 0x01	; 1
    1c18:	20 93 e1 01 	sts	0x01E1, r18
    1c1c:	20 93 69 01 	sts	0x0169, r18
    1c20:	10 92 d2 02 	sts	0x02D2, r1
    1c24:	10 92 5a 02 	sts	0x025A, r1
    1c28:	20 93 e2 01 	sts	0x01E2, r18
    1c2c:	20 93 6a 01 	sts	0x016A, r18
    1c30:	10 92 d3 02 	sts	0x02D3, r1
    1c34:	10 92 5b 02 	sts	0x025B, r1
    1c38:	20 93 e3 01 	sts	0x01E3, r18
    1c3c:	20 93 6b 01 	sts	0x016B, r18
    1c40:	10 92 d4 02 	sts	0x02D4, r1
    1c44:	10 92 5c 02 	sts	0x025C, r1
    1c48:	20 93 e4 01 	sts	0x01E4, r18
    1c4c:	20 93 6c 01 	sts	0x016C, r18
    1c50:	10 92 d5 02 	sts	0x02D5, r1
    1c54:	10 92 5d 02 	sts	0x025D, r1
    1c58:	20 93 e5 01 	sts	0x01E5, r18
    1c5c:	20 93 6d 01 	sts	0x016D, r18
    1c60:	48 e0       	ldi	r20, 0x08	; 8
    1c62:	40 93 d6 02 	sts	0x02D6, r20
    1c66:	40 93 5e 02 	sts	0x025E, r20
    1c6a:	20 93 e6 01 	sts	0x01E6, r18
    1c6e:	29 e0       	ldi	r18, 0x09	; 9
    1c70:	20 93 6e 01 	sts	0x016E, r18
    1c74:	40 93 d7 02 	sts	0x02D7, r20
    1c78:	40 93 5f 02 	sts	0x025F, r20
    1c7c:	21 e8       	ldi	r18, 0x81	; 129
    1c7e:	20 93 e7 01 	sts	0x01E7, r18
    1c82:	59 e8       	ldi	r21, 0x89	; 137
    1c84:	50 93 6f 01 	sts	0x016F, r21
    1c88:	40 93 d8 02 	sts	0x02D8, r20
    1c8c:	40 93 60 02 	sts	0x0260, r20
    1c90:	20 93 e8 01 	sts	0x01E8, r18
    1c94:	50 93 70 01 	sts	0x0170, r21
    1c98:	40 93 d9 02 	sts	0x02D9, r20
    1c9c:	40 93 61 02 	sts	0x0261, r20
    1ca0:	20 93 e9 01 	sts	0x01E9, r18
    1ca4:	50 93 71 01 	sts	0x0171, r21
    1ca8:	10 92 da 02 	sts	0x02DA, r1
    1cac:	10 92 62 02 	sts	0x0262, r1
    1cb0:	20 93 ea 01 	sts	0x01EA, r18
    1cb4:	20 93 72 01 	sts	0x0172, r18
    1cb8:	10 92 db 02 	sts	0x02DB, r1
    1cbc:	10 92 63 02 	sts	0x0263, r1
    1cc0:	20 93 eb 01 	sts	0x01EB, r18
    1cc4:	20 93 73 01 	sts	0x0173, r18
    1cc8:	10 92 dc 02 	sts	0x02DC, r1
    1ccc:	10 92 64 02 	sts	0x0264, r1
    1cd0:	33 e8       	ldi	r19, 0x83	; 131
    1cd2:	30 93 ec 01 	sts	0x01EC, r19
    1cd6:	30 93 74 01 	sts	0x0174, r19
    1cda:	10 92 dd 02 	sts	0x02DD, r1
    1cde:	10 92 65 02 	sts	0x0265, r1
    1ce2:	20 93 ed 01 	sts	0x01ED, r18
    1ce6:	20 93 75 01 	sts	0x0175, r18
    1cea:	10 92 de 02 	sts	0x02DE, r1
    1cee:	10 92 66 02 	sts	0x0266, r1
    1cf2:	07 e8       	ldi	r16, 0x87	; 135
    1cf4:	00 93 ee 01 	sts	0x01EE, r16
    1cf8:	00 93 76 01 	sts	0x0176, r16
    1cfc:	10 92 df 02 	sts	0x02DF, r1
    1d00:	10 92 67 02 	sts	0x0267, r1
    1d04:	20 93 ef 01 	sts	0x01EF, r18
    1d08:	20 93 77 01 	sts	0x0177, r18
    1d0c:	10 92 e0 02 	sts	0x02E0, r1
    1d10:	10 92 68 02 	sts	0x0268, r1
    1d14:	1f e8       	ldi	r17, 0x8F	; 143
    1d16:	10 93 f0 01 	sts	0x01F0, r17
    1d1a:	10 93 78 01 	sts	0x0178, r17
    1d1e:	10 92 e1 02 	sts	0x02E1, r1
    1d22:	10 92 69 02 	sts	0x0269, r1
    1d26:	20 93 f1 01 	sts	0x01F1, r18
    1d2a:	20 93 79 01 	sts	0x0179, r18
    1d2e:	10 92 e2 02 	sts	0x02E2, r1
    1d32:	10 92 6a 02 	sts	0x026A, r1
    1d36:	10 93 f2 01 	sts	0x01F2, r17
    1d3a:	10 93 7a 01 	sts	0x017A, r17
    1d3e:	10 92 e3 02 	sts	0x02E3, r1
    1d42:	10 92 6b 02 	sts	0x026B, r1
    1d46:	20 93 f3 01 	sts	0x01F3, r18
    1d4a:	20 93 7b 01 	sts	0x017B, r18
    1d4e:	10 92 e4 02 	sts	0x02E4, r1
    1d52:	10 92 6c 02 	sts	0x026C, r1
    1d56:	00 93 f4 01 	sts	0x01F4, r16
    1d5a:	00 93 7c 01 	sts	0x017C, r16
    1d5e:	10 92 e5 02 	sts	0x02E5, r1
    1d62:	10 92 6d 02 	sts	0x026D, r1
    1d66:	20 93 f5 01 	sts	0x01F5, r18
    1d6a:	20 93 7d 01 	sts	0x017D, r18
    1d6e:	10 92 e6 02 	sts	0x02E6, r1
    1d72:	10 92 6e 02 	sts	0x026E, r1
    1d76:	20 93 f6 01 	sts	0x01F6, r18
    1d7a:	20 93 7e 01 	sts	0x017E, r18
    1d7e:	10 92 e7 02 	sts	0x02E7, r1
    1d82:	10 92 6f 02 	sts	0x026F, r1
    1d86:	20 93 f7 01 	sts	0x01F7, r18
    1d8a:	20 93 7f 01 	sts	0x017F, r18
    1d8e:	10 92 e8 02 	sts	0x02E8, r1
    1d92:	10 92 70 02 	sts	0x0270, r1
    1d96:	79 e9       	ldi	r23, 0x99	; 153
    1d98:	70 93 f8 01 	sts	0x01F8, r23
    1d9c:	70 93 80 01 	sts	0x0180, r23
    1da0:	10 92 e9 02 	sts	0x02E9, r1
    1da4:	10 92 71 02 	sts	0x0271, r1
    1da8:	50 93 f9 01 	sts	0x01F9, r21
    1dac:	50 93 81 01 	sts	0x0181, r21
    1db0:	10 92 ea 02 	sts	0x02EA, r1
    1db4:	10 92 72 02 	sts	0x0272, r1
    1db8:	70 93 fa 01 	sts	0x01FA, r23
    1dbc:	70 93 82 01 	sts	0x0182, r23
    1dc0:	10 92 eb 02 	sts	0x02EB, r1
    1dc4:	10 92 73 02 	sts	0x0273, r1
    1dc8:	61 e9       	ldi	r22, 0x91	; 145
    1dca:	60 93 fb 01 	sts	0x01FB, r22
    1dce:	60 93 83 01 	sts	0x0183, r22
    1dd2:	10 92 ec 02 	sts	0x02EC, r1
    1dd6:	10 92 74 02 	sts	0x0274, r1
    1dda:	70 93 fc 01 	sts	0x01FC, r23
    1dde:	70 93 84 01 	sts	0x0184, r23
    1de2:	10 92 ed 02 	sts	0x02ED, r1
    1de6:	10 92 75 02 	sts	0x0275, r1
    1dea:	50 93 fd 01 	sts	0x01FD, r21
    1dee:	50 93 85 01 	sts	0x0185, r21
    1df2:	10 92 ee 02 	sts	0x02EE, r1
    1df6:	10 92 76 02 	sts	0x0276, r1
    1dfa:	70 93 fe 01 	sts	0x01FE, r23
    1dfe:	70 93 86 01 	sts	0x0186, r23
    1e02:	10 92 ef 02 	sts	0x02EF, r1
    1e06:	10 92 77 02 	sts	0x0277, r1
    1e0a:	20 93 ff 01 	sts	0x01FF, r18
    1e0e:	20 93 87 01 	sts	0x0187, r18
    1e12:	10 92 f0 02 	sts	0x02F0, r1
    1e16:	10 92 78 02 	sts	0x0278, r1
    1e1a:	20 93 00 02 	sts	0x0200, r18
    1e1e:	20 93 88 01 	sts	0x0188, r18
    1e22:	10 92 f1 02 	sts	0x02F1, r1
    1e26:	10 92 79 02 	sts	0x0279, r1
    1e2a:	61 eb       	ldi	r22, 0xB1	; 177
    1e2c:	60 93 01 02 	sts	0x0201, r22
    1e30:	60 93 89 01 	sts	0x0189, r22
    1e34:	10 92 f2 02 	sts	0x02F2, r1
    1e38:	10 92 7a 02 	sts	0x027A, r1
    1e3c:	6d ef       	ldi	r22, 0xFD	; 253
    1e3e:	60 93 02 02 	sts	0x0202, r22
    1e42:	60 93 8a 01 	sts	0x018A, r22
    1e46:	10 92 f3 02 	sts	0x02F3, r1
    1e4a:	10 92 7b 02 	sts	0x027B, r1
    1e4e:	6d ec       	ldi	r22, 0xCD	; 205
    1e50:	60 93 03 02 	sts	0x0203, r22
    1e54:	60 93 8b 01 	sts	0x018B, r22
    1e58:	10 92 f4 02 	sts	0x02F4, r1
    1e5c:	10 92 7c 02 	sts	0x027C, r1
    1e60:	20 93 04 02 	sts	0x0204, r18
    1e64:	20 93 8c 01 	sts	0x018C, r18
    1e68:	10 92 f5 02 	sts	0x02F5, r1
    1e6c:	10 92 7d 02 	sts	0x027D, r1
    1e70:	69 ec       	ldi	r22, 0xC9	; 201
    1e72:	60 93 05 02 	sts	0x0205, r22
    1e76:	60 93 8d 01 	sts	0x018D, r22
    1e7a:	10 92 f6 02 	sts	0x02F6, r1
    1e7e:	10 92 7e 02 	sts	0x027E, r1
    1e82:	60 93 06 02 	sts	0x0206, r22
    1e86:	60 93 8e 01 	sts	0x018E, r22
    1e8a:	10 92 f7 02 	sts	0x02F7, r1
    1e8e:	10 92 7f 02 	sts	0x027F, r1
    1e92:	e9 ef       	ldi	r30, 0xF9	; 249
    1e94:	ee 2e       	mov	r14, r30
    1e96:	e0 92 07 02 	sts	0x0207, r14
    1e9a:	e0 92 8f 01 	sts	0x018F, r14
    1e9e:	10 92 f8 02 	sts	0x02F8, r1
    1ea2:	10 92 80 02 	sts	0x0280, r1
    1ea6:	20 93 08 02 	sts	0x0208, r18
    1eaa:	20 93 90 01 	sts	0x0190, r18
    1eae:	10 92 f9 02 	sts	0x02F9, r1
    1eb2:	10 92 81 02 	sts	0x0281, r1
    1eb6:	f1 ec       	ldi	r31, 0xC1	; 193
    1eb8:	df 2e       	mov	r13, r31
    1eba:	d0 92 09 02 	sts	0x0209, r13
    1ebe:	d0 92 91 01 	sts	0x0191, r13
    1ec2:	10 92 fa 02 	sts	0x02FA, r1
    1ec6:	10 92 82 02 	sts	0x0282, r1
    1eca:	e0 92 0a 02 	sts	0x020A, r14
    1ece:	e0 92 92 01 	sts	0x0192, r14
    1ed2:	10 92 fb 02 	sts	0x02FB, r1
    1ed6:	10 92 83 02 	sts	0x0283, r1
    1eda:	50 93 0b 02 	sts	0x020B, r21
    1ede:	50 93 93 01 	sts	0x0193, r21
    1ee2:	10 92 fc 02 	sts	0x02FC, r1
    1ee6:	10 92 84 02 	sts	0x0284, r1
    1eea:	70 93 0c 02 	sts	0x020C, r23
    1eee:	70 93 94 01 	sts	0x0194, r23
    1ef2:	10 92 fd 02 	sts	0x02FD, r1
    1ef6:	10 92 85 02 	sts	0x0285, r1
    1efa:	20 93 0d 02 	sts	0x020D, r18
    1efe:	20 93 95 01 	sts	0x0195, r18
    1f02:	10 92 fe 02 	sts	0x02FE, r1
    1f06:	10 92 86 02 	sts	0x0286, r1
    1f0a:	ed e9       	ldi	r30, 0x9D	; 157
    1f0c:	ee 2e       	mov	r14, r30
    1f0e:	e0 92 0e 02 	sts	0x020E, r14
    1f12:	e0 92 96 01 	sts	0x0196, r14
    1f16:	10 92 ff 02 	sts	0x02FF, r1
    1f1a:	10 92 87 02 	sts	0x0287, r1
    1f1e:	e0 92 0f 02 	sts	0x020F, r14
    1f22:	e0 92 97 01 	sts	0x0197, r14
    1f26:	10 92 00 03 	sts	0x0300, r1
    1f2a:	10 92 88 02 	sts	0x0288, r1
    1f2e:	20 93 10 02 	sts	0x0210, r18
    1f32:	20 93 98 01 	sts	0x0198, r18
    1f36:	10 92 01 03 	sts	0x0301, r1
    1f3a:	10 92 89 02 	sts	0x0289, r1
    1f3e:	60 93 11 02 	sts	0x0211, r22
    1f42:	60 93 99 01 	sts	0x0199, r22
    1f46:	10 92 02 03 	sts	0x0302, r1
    1f4a:	10 92 8a 02 	sts	0x028A, r1
    1f4e:	60 93 12 02 	sts	0x0212, r22
    1f52:	60 93 9a 01 	sts	0x019A, r22
    1f56:	10 92 03 03 	sts	0x0303, r1
    1f5a:	10 92 8b 02 	sts	0x028B, r1
    1f5e:	60 e8       	ldi	r22, 0x80	; 128
    1f60:	60 93 13 02 	sts	0x0213, r22
    1f64:	60 93 9b 01 	sts	0x019B, r22
    1f68:	10 92 04 03 	sts	0x0304, r1
    1f6c:	10 92 8c 02 	sts	0x028C, r1
    1f70:	60 93 14 02 	sts	0x0214, r22
    1f74:	60 93 9c 01 	sts	0x019C, r22
    1f78:	10 92 05 03 	sts	0x0305, r1
    1f7c:	10 92 8d 02 	sts	0x028D, r1
    1f80:	20 93 15 02 	sts	0x0215, r18
    1f84:	20 93 9d 01 	sts	0x019D, r18
    1f88:	10 92 06 03 	sts	0x0306, r1
    1f8c:	10 92 8e 02 	sts	0x028E, r1
    1f90:	50 93 16 02 	sts	0x0216, r21
    1f94:	50 93 9e 01 	sts	0x019E, r21
    1f98:	10 92 07 03 	sts	0x0307, r1
    1f9c:	10 92 8f 02 	sts	0x028F, r1
    1fa0:	50 93 17 02 	sts	0x0217, r21
    1fa4:	50 93 9f 01 	sts	0x019F, r21
    1fa8:	10 92 08 03 	sts	0x0308, r1
    1fac:	10 92 90 02 	sts	0x0290, r1
    1fb0:	50 93 18 02 	sts	0x0218, r21
    1fb4:	50 93 a0 01 	sts	0x01A0, r21
    1fb8:	10 92 09 03 	sts	0x0309, r1
    1fbc:	10 92 91 02 	sts	0x0291, r1
    1fc0:	20 93 19 02 	sts	0x0219, r18
    1fc4:	20 93 a1 01 	sts	0x01A1, r18
    1fc8:	10 92 0a 03 	sts	0x030A, r1
    1fcc:	10 92 92 02 	sts	0x0292, r1
    1fd0:	20 93 1a 02 	sts	0x021A, r18
    1fd4:	20 93 a2 01 	sts	0x01A2, r18
    1fd8:	10 92 0b 03 	sts	0x030B, r1
    1fdc:	10 92 93 02 	sts	0x0293, r1
    1fe0:	20 93 1b 02 	sts	0x021B, r18
    1fe4:	20 93 a3 01 	sts	0x01A3, r18
    1fe8:	10 92 0c 03 	sts	0x030C, r1
    1fec:	10 92 94 02 	sts	0x0294, r1
    1ff0:	20 93 1c 02 	sts	0x021C, r18
    1ff4:	20 93 a4 01 	sts	0x01A4, r18
    1ff8:	dd 96       	adiw	r26, 0x3d	; 61
    1ffa:	1c 92       	st	X, r1
    1ffc:	dd 97       	sbiw	r26, 0x3d	; 61
    1ffe:	f5 01       	movw	r30, r10
    2000:	15 ae       	sts	0xb5, r17
    2002:	2d af       	sts	0x7d, r18
    2004:	fc 01       	movw	r30, r24
    2006:	25 af       	sts	0x75, r18
    2008:	de 96       	adiw	r26, 0x3e	; 62
    200a:	1c 92       	st	X, r1
    200c:	de 97       	sbiw	r26, 0x3e	; 62
    200e:	f5 01       	movw	r30, r10
    2010:	16 ae       	sts	0xb6, r17
    2012:	2e af       	sts	0x7e, r18
    2014:	fc 01       	movw	r30, r24
    2016:	26 af       	sts	0x76, r18
    2018:	df 96       	adiw	r26, 0x3f	; 63
    201a:	1c 92       	st	X, r1
    201c:	df 97       	sbiw	r26, 0x3f	; 63
    201e:	f5 01       	movw	r30, r10
    2020:	17 ae       	sts	0xb7, r17
    2022:	2f af       	sts	0x7f, r18
    2024:	fc 01       	movw	r30, r24
    2026:	27 af       	sts	0x77, r18
    2028:	10 92 10 03 	sts	0x0310, r1
    202c:	86 e0       	ldi	r24, 0x06	; 6
    202e:	80 93 98 02 	sts	0x0298, r24
    2032:	20 93 20 02 	sts	0x0220, r18
    2036:	00 93 a8 01 	sts	0x01A8, r16
    203a:	10 92 11 03 	sts	0x0311, r1
    203e:	80 93 99 02 	sts	0x0299, r24
    2042:	20 93 21 02 	sts	0x0221, r18
    2046:	00 93 a9 01 	sts	0x01A9, r16
    204a:	10 92 12 03 	sts	0x0312, r1
    204e:	10 92 9a 02 	sts	0x029A, r1
    2052:	20 93 22 02 	sts	0x0222, r18
    2056:	20 93 aa 01 	sts	0x01AA, r18
    205a:	10 92 13 03 	sts	0x0313, r1
    205e:	10 92 9b 02 	sts	0x029B, r1
    2062:	20 93 23 02 	sts	0x0223, r18
    2066:	20 93 ab 01 	sts	0x01AB, r18
    206a:	10 92 14 03 	sts	0x0314, r1
    206e:	9e e0       	ldi	r25, 0x0E	; 14
    2070:	90 93 9c 02 	sts	0x029C, r25
    2074:	20 93 24 02 	sts	0x0224, r18
    2078:	10 93 ac 01 	sts	0x01AC, r17
    207c:	10 92 15 03 	sts	0x0315, r1
    2080:	90 93 9d 02 	sts	0x029D, r25
    2084:	20 93 25 02 	sts	0x0225, r18
    2088:	10 93 ad 01 	sts	0x01AD, r17
    208c:	10 92 16 03 	sts	0x0316, r1
    2090:	10 92 9e 02 	sts	0x029E, r1
    2094:	20 93 26 02 	sts	0x0226, r18
    2098:	20 93 ae 01 	sts	0x01AE, r18
    209c:	10 92 17 03 	sts	0x0317, r1
    20a0:	10 92 9f 02 	sts	0x029F, r1
    20a4:	20 93 27 02 	sts	0x0227, r18
    20a8:	20 93 af 01 	sts	0x01AF, r18
    20ac:	10 92 18 03 	sts	0x0318, r1
    20b0:	80 93 a0 02 	sts	0x02A0, r24
    20b4:	20 93 28 02 	sts	0x0228, r18
    20b8:	00 93 b0 01 	sts	0x01B0, r16
    20bc:	10 92 19 03 	sts	0x0319, r1
    20c0:	80 93 a1 02 	sts	0x02A1, r24
    20c4:	20 93 29 02 	sts	0x0229, r18
    20c8:	00 93 b1 01 	sts	0x01B1, r16
    20cc:	10 92 1a 03 	sts	0x031A, r1
    20d0:	10 92 a2 02 	sts	0x02A2, r1
    20d4:	60 93 2a 02 	sts	0x022A, r22
    20d8:	60 93 b2 01 	sts	0x01B2, r22
    20dc:	10 92 1b 03 	sts	0x031B, r1
    20e0:	10 92 a3 02 	sts	0x02A3, r1
    20e4:	60 93 2b 02 	sts	0x022B, r22
    20e8:	60 93 b3 01 	sts	0x01B3, r22
    20ec:	10 92 1c 03 	sts	0x031C, r1
    20f0:	10 92 a4 02 	sts	0x02A4, r1
    20f4:	60 93 2c 02 	sts	0x022C, r22
    20f8:	60 93 b4 01 	sts	0x01B4, r22
    20fc:	10 92 1d 03 	sts	0x031D, r1
    2100:	10 92 a5 02 	sts	0x02A5, r1
    2104:	30 93 2d 02 	sts	0x022D, r19
    2108:	30 93 b5 01 	sts	0x01B5, r19
    210c:	10 92 1e 03 	sts	0x031E, r1
    2110:	10 92 a6 02 	sts	0x02A6, r1
    2114:	60 93 2e 02 	sts	0x022E, r22
    2118:	60 93 b6 01 	sts	0x01B6, r22
    211c:	10 92 1f 03 	sts	0x031F, r1
    2120:	10 92 a7 02 	sts	0x02A7, r1
    2124:	60 93 2f 02 	sts	0x022F, r22
    2128:	60 93 b7 01 	sts	0x01B7, r22
    212c:	10 92 20 03 	sts	0x0320, r1
    2130:	10 92 a8 02 	sts	0x02A8, r1
    2134:	20 93 30 02 	sts	0x0230, r18
    2138:	20 93 b8 01 	sts	0x01B8, r18
    213c:	10 92 21 03 	sts	0x0321, r1
    2140:	10 92 a9 02 	sts	0x02A9, r1
    2144:	20 93 31 02 	sts	0x0231, r18
    2148:	20 93 b9 01 	sts	0x01B9, r18
    214c:	10 92 22 03 	sts	0x0322, r1
    2150:	10 92 aa 02 	sts	0x02AA, r1
    2154:	20 93 32 02 	sts	0x0232, r18
    2158:	20 93 ba 01 	sts	0x01BA, r18
    215c:	10 92 23 03 	sts	0x0323, r1
    2160:	10 92 ab 02 	sts	0x02AB, r1
    2164:	20 93 33 02 	sts	0x0233, r18
    2168:	20 93 bb 01 	sts	0x01BB, r18
    216c:	10 92 24 03 	sts	0x0324, r1
    2170:	10 92 ac 02 	sts	0x02AC, r1
    2174:	30 93 34 02 	sts	0x0234, r19
    2178:	30 93 bc 01 	sts	0x01BC, r19
    217c:	10 92 25 03 	sts	0x0325, r1
    2180:	10 92 ad 02 	sts	0x02AD, r1
    2184:	87 e0       	ldi	r24, 0x07	; 7
    2186:	80 93 35 02 	sts	0x0235, r24
    218a:	80 93 bd 01 	sts	0x01BD, r24
    218e:	10 92 26 03 	sts	0x0326, r1
    2192:	10 92 ae 02 	sts	0x02AE, r1
    2196:	8f e0       	ldi	r24, 0x0F	; 15
    2198:	80 93 36 02 	sts	0x0236, r24
    219c:	80 93 be 01 	sts	0x01BE, r24
    21a0:	10 92 27 03 	sts	0x0327, r1
    21a4:	10 92 af 02 	sts	0x02AF, r1
    21a8:	10 92 37 02 	sts	0x0237, r1
    21ac:	10 92 bf 01 	sts	0x01BF, r1
    21b0:	82 e4       	ldi	r24, 0x42	; 66
    21b2:	80 93 28 03 	sts	0x0328, r24
    21b6:	80 93 b0 02 	sts	0x02B0, r24
    21ba:	10 92 38 02 	sts	0x0238, r1
    21be:	80 93 c0 01 	sts	0x01C0, r24
    21c2:	10 92 29 03 	sts	0x0329, r1
    21c6:	10 92 b1 02 	sts	0x02B1, r1
    21ca:	10 92 39 02 	sts	0x0239, r1
    21ce:	10 92 c1 01 	sts	0x01C1, r1
    21d2:	10 92 2a 03 	sts	0x032A, r1
    21d6:	10 92 b2 02 	sts	0x02B2, r1
    21da:	40 93 3a 02 	sts	0x023A, r20
    21de:	40 93 c2 01 	sts	0x01C2, r20
    21e2:	10 92 2b 03 	sts	0x032B, r1
    21e6:	10 92 b3 02 	sts	0x02B3, r1
    21ea:	40 93 3b 02 	sts	0x023B, r20
    21ee:	40 93 c3 01 	sts	0x01C3, r20
    21f2:	10 92 2c 03 	sts	0x032C, r1
    21f6:	10 92 b4 02 	sts	0x02B4, r1
    21fa:	40 93 3c 02 	sts	0x023C, r20
    21fe:	40 93 c4 01 	sts	0x01C4, r20
    2202:	10 92 2d 03 	sts	0x032D, r1
    2206:	10 92 b5 02 	sts	0x02B5, r1
    220a:	40 93 3d 02 	sts	0x023D, r20
    220e:	40 93 c5 01 	sts	0x01C5, r20
    2212:	10 92 2e 03 	sts	0x032E, r1
    2216:	10 92 b6 02 	sts	0x02B6, r1
    221a:	40 93 3e 02 	sts	0x023E, r20
    221e:	40 93 c6 01 	sts	0x01C6, r20
    2222:	10 92 2f 03 	sts	0x032F, r1
    2226:	10 92 b7 02 	sts	0x02B7, r1
    222a:	10 92 3f 02 	sts	0x023F, r1
    222e:	10 92 c7 01 	sts	0x01C7, r1
    2232:	10 92 30 03 	sts	0x0330, r1
    2236:	10 92 b8 02 	sts	0x02B8, r1
    223a:	10 92 40 02 	sts	0x0240, r1
    223e:	10 92 c8 01 	sts	0x01C8, r1
    2242:	80 93 31 03 	sts	0x0331, r24
    2246:	80 93 b9 02 	sts	0x02B9, r24
    224a:	10 92 41 02 	sts	0x0241, r1
    224e:	80 93 c9 01 	sts	0x01C9, r24
    2252:	80 93 32 03 	sts	0x0332, r24
    2256:	80 93 ba 02 	sts	0x02BA, r24
    225a:	10 92 42 02 	sts	0x0242, r1
    225e:	80 93 ca 01 	sts	0x01CA, r24
    2262:	10 92 33 03 	sts	0x0333, r1
    2266:	10 92 bb 02 	sts	0x02BB, r1
    226a:	10 92 43 02 	sts	0x0243, r1
    226e:	10 92 cb 01 	sts	0x01CB, r1
    2272:	10 92 34 03 	sts	0x0334, r1
    2276:	10 92 bc 02 	sts	0x02BC, r1
    227a:	10 92 44 02 	sts	0x0244, r1
    227e:	10 92 cc 01 	sts	0x01CC, r1
    2282:	10 92 35 03 	sts	0x0335, r1
    2286:	10 92 bd 02 	sts	0x02BD, r1
    228a:	30 93 45 02 	sts	0x0245, r19
    228e:	30 93 cd 01 	sts	0x01CD, r19
    2292:	10 92 36 03 	sts	0x0336, r1
    2296:	10 92 be 02 	sts	0x02BE, r1
    229a:	30 93 46 02 	sts	0x0246, r19
    229e:	30 93 ce 01 	sts	0x01CE, r19
    22a2:	10 92 37 03 	sts	0x0337, r1
    22a6:	10 92 bf 02 	sts	0x02BF, r1
    22aa:	30 93 47 02 	sts	0x0247, r19
    22ae:	30 93 cf 01 	sts	0x01CF, r19
    22b2:	10 92 38 03 	sts	0x0338, r1
    22b6:	10 92 c0 02 	sts	0x02C0, r1
    22ba:	30 93 48 02 	sts	0x0248, r19
    22be:	30 93 d0 01 	sts	0x01D0, r19
    22c2:	10 92 39 03 	sts	0x0339, r1
    22c6:	10 92 c1 02 	sts	0x02C1, r1
    22ca:	30 93 49 02 	sts	0x0249, r19
    22ce:	30 93 d1 01 	sts	0x01D1, r19
    22d2:	10 92 3a 03 	sts	0x033A, r1
    22d6:	10 92 c2 02 	sts	0x02C2, r1
    22da:	30 93 4a 02 	sts	0x024A, r19
    22de:	30 93 d2 01 	sts	0x01D2, r19
    22e2:	10 92 3b 03 	sts	0x033B, r1
    22e6:	10 92 c3 02 	sts	0x02C3, r1
    22ea:	30 93 4b 02 	sts	0x024B, r19
    22ee:	30 93 d3 01 	sts	0x01D3, r19
    22f2:	10 92 3c 03 	sts	0x033C, r1
    22f6:	10 92 c4 02 	sts	0x02C4, r1
    22fa:	30 93 4c 02 	sts	0x024C, r19
    22fe:	30 93 d4 01 	sts	0x01D4, r19
    2302:	10 92 3d 03 	sts	0x033D, r1
    2306:	10 92 c5 02 	sts	0x02C5, r1
    230a:	30 93 4d 02 	sts	0x024D, r19
    230e:	30 93 d5 01 	sts	0x01D5, r19
    2312:	10 92 3e 03 	sts	0x033E, r1
    2316:	10 92 c6 02 	sts	0x02C6, r1
    231a:	30 93 4e 02 	sts	0x024E, r19
    231e:	30 93 d6 01 	sts	0x01D6, r19
    2322:	10 92 3f 03 	sts	0x033F, r1
    2326:	10 92 c7 02 	sts	0x02C7, r1
    232a:	20 93 4f 02 	sts	0x024F, r18
    232e:	20 93 d7 01 	sts	0x01D7, r18
    2332:	10 92 40 03 	sts	0x0340, r1
    2336:	10 92 c8 02 	sts	0x02C8, r1
    233a:	20 93 50 02 	sts	0x0250, r18
    233e:	20 93 d8 01 	sts	0x01D8, r18
    2342:	10 92 41 03 	sts	0x0341, r1
    2346:	10 92 c9 02 	sts	0x02C9, r1
    234a:	10 93 51 02 	sts	0x0251, r17
    234e:	50 93 d9 01 	sts	0x01D9, r21
    2352:	10 92 42 03 	sts	0x0342, r1
    2356:	10 92 ca 02 	sts	0x02CA, r1
    235a:	8f e9       	ldi	r24, 0x9F	; 159
    235c:	80 93 52 02 	sts	0x0252, r24
    2360:	70 93 da 01 	sts	0x01DA, r23
    2364:	10 92 43 03 	sts	0x0343, r1
    2368:	10 92 cb 02 	sts	0x02CB, r1
    236c:	70 93 53 02 	sts	0x0253, r23
    2370:	70 93 db 01 	sts	0x01DB, r23
    2374:	10 92 44 03 	sts	0x0344, r1
    2378:	10 92 cc 02 	sts	0x02CC, r1
    237c:	80 93 54 02 	sts	0x0254, r24
    2380:	80 93 dc 01 	sts	0x01DC, r24
    2384:	10 92 45 03 	sts	0x0345, r1
    2388:	10 92 cd 02 	sts	0x02CD, r1
    238c:	10 93 55 02 	sts	0x0255, r17
    2390:	10 93 dd 01 	sts	0x01DD, r17
    2394:	10 92 46 03 	sts	0x0346, r1
    2398:	10 92 ce 02 	sts	0x02CE, r1
    239c:	20 93 56 02 	sts	0x0256, r18
    23a0:	20 93 de 01 	sts	0x01DE, r18
    23a4:	10 92 47 03 	sts	0x0347, r1
    23a8:	10 92 cf 02 	sts	0x02CF, r1
    23ac:	f0 92 57 02 	sts	0x0257, r15
    23b0:	f0 92 df 01 	sts	0x01DF, r15
    23b4:	df 91       	pop	r29
    23b6:	cf 91       	pop	r28
    23b8:	1f 91       	pop	r17
    23ba:	0f 91       	pop	r16
    23bc:	ff 90       	pop	r15
    23be:	ef 90       	pop	r14
    23c0:	df 90       	pop	r13
    23c2:	bf 90       	pop	r11
    23c4:	af 90       	pop	r10
    23c6:	08 95       	ret

000023c8 <loadLevel3>:
    23c8:	4f 92       	push	r4
    23ca:	5f 92       	push	r5
    23cc:	6f 92       	push	r6
    23ce:	7f 92       	push	r7
    23d0:	8f 92       	push	r8
    23d2:	9f 92       	push	r9
    23d4:	bf 92       	push	r11
    23d6:	cf 92       	push	r12
    23d8:	df 92       	push	r13
    23da:	ef 92       	push	r14
    23dc:	ff 92       	push	r15
    23de:	0f 93       	push	r16
    23e0:	1f 93       	push	r17
    23e2:	cf 93       	push	r28
    23e4:	df 93       	push	r29
    23e6:	a0 ed       	ldi	r26, 0xD0	; 208
    23e8:	b2 e0       	ldi	r27, 0x02	; 2
    23ea:	81 e0       	ldi	r24, 0x01	; 1
    23ec:	80 93 d0 02 	sts	0x02D0, r24
    23f0:	f8 e5       	ldi	r31, 0x58	; 88
    23f2:	4f 2e       	mov	r4, r31
    23f4:	f2 e0       	ldi	r31, 0x02	; 2
    23f6:	5f 2e       	mov	r5, r31
    23f8:	80 93 58 02 	sts	0x0258, r24
    23fc:	c0 ee       	ldi	r28, 0xE0	; 224
    23fe:	8c 2e       	mov	r8, r28
    2400:	c1 e0       	ldi	r28, 0x01	; 1
    2402:	9c 2e       	mov	r9, r28
    2404:	10 92 e0 01 	sts	0x01E0, r1
    2408:	d8 e6       	ldi	r29, 0x68	; 104
    240a:	6d 2e       	mov	r6, r29
    240c:	d1 e0       	ldi	r29, 0x01	; 1
    240e:	7d 2e       	mov	r7, r29
    2410:	80 93 68 01 	sts	0x0168, r24
    2414:	91 e8       	ldi	r25, 0x81	; 129
    2416:	90 93 d1 02 	sts	0x02D1, r25
    241a:	90 93 59 02 	sts	0x0259, r25
    241e:	c0 e8       	ldi	r28, 0x80	; 128
    2420:	c0 93 e1 01 	sts	0x01E1, r28
    2424:	80 93 69 01 	sts	0x0169, r24
    2428:	91 ec       	ldi	r25, 0xC1	; 193
    242a:	90 93 d2 02 	sts	0x02D2, r25
    242e:	90 93 5a 02 	sts	0x025A, r25
    2432:	10 ec       	ldi	r17, 0xC0	; 192
    2434:	10 93 e2 01 	sts	0x01E2, r17
    2438:	80 93 6a 01 	sts	0x016A, r24
    243c:	01 e4       	ldi	r16, 0x41	; 65
    243e:	f0 2e       	mov	r15, r16
    2440:	f0 92 d3 02 	sts	0x02D3, r15
    2444:	f0 92 5b 02 	sts	0x025B, r15
    2448:	50 e4       	ldi	r21, 0x40	; 64
    244a:	50 93 e3 01 	sts	0x01E3, r21
    244e:	80 93 6b 01 	sts	0x016B, r24
    2452:	80 93 d4 02 	sts	0x02D4, r24
    2456:	80 93 5c 02 	sts	0x025C, r24
    245a:	10 92 e4 01 	sts	0x01E4, r1
    245e:	80 93 6c 01 	sts	0x016C, r24
    2462:	80 93 d5 02 	sts	0x02D5, r24
    2466:	80 93 5d 02 	sts	0x025D, r24
    246a:	10 92 e5 01 	sts	0x01E5, r1
    246e:	80 93 6d 01 	sts	0x016D, r24
    2472:	80 93 d6 02 	sts	0x02D6, r24
    2476:	80 93 5e 02 	sts	0x025E, r24
    247a:	10 92 e6 01 	sts	0x01E6, r1
    247e:	80 93 6e 01 	sts	0x016E, r24
    2482:	61 e1       	ldi	r22, 0x11	; 17
    2484:	60 93 d7 02 	sts	0x02D7, r22
    2488:	60 93 5f 02 	sts	0x025F, r22
    248c:	20 e1       	ldi	r18, 0x10	; 16
    248e:	20 93 e7 01 	sts	0x01E7, r18
    2492:	80 93 6f 01 	sts	0x016F, r24
    2496:	91 e3       	ldi	r25, 0x31	; 49
    2498:	b9 2e       	mov	r11, r25
    249a:	b0 92 d8 02 	sts	0x02D8, r11
    249e:	b0 92 60 02 	sts	0x0260, r11
    24a2:	30 e3       	ldi	r19, 0x30	; 48
    24a4:	c3 2e       	mov	r12, r19
    24a6:	c0 92 e8 01 	sts	0x01E8, r12
    24aa:	80 93 70 01 	sts	0x0170, r24
    24ae:	60 93 d9 02 	sts	0x02D9, r22
    24b2:	60 93 61 02 	sts	0x0261, r22
    24b6:	20 93 e9 01 	sts	0x01E9, r18
    24ba:	80 93 71 01 	sts	0x0171, r24
    24be:	80 93 da 02 	sts	0x02DA, r24
    24c2:	80 93 62 02 	sts	0x0262, r24
    24c6:	10 92 ea 01 	sts	0x01EA, r1
    24ca:	80 93 72 01 	sts	0x0172, r24
    24ce:	10 92 db 02 	sts	0x02DB, r1
    24d2:	10 92 63 02 	sts	0x0263, r1
    24d6:	10 92 eb 01 	sts	0x01EB, r1
    24da:	10 92 73 01 	sts	0x0173, r1
    24de:	10 92 dc 02 	sts	0x02DC, r1
    24e2:	32 e0       	ldi	r19, 0x02	; 2
    24e4:	30 93 64 02 	sts	0x0264, r19
    24e8:	10 92 ec 01 	sts	0x01EC, r1
    24ec:	30 93 74 01 	sts	0x0174, r19
    24f0:	80 93 dd 02 	sts	0x02DD, r24
    24f4:	43 e0       	ldi	r20, 0x03	; 3
    24f6:	e4 2e       	mov	r14, r20
    24f8:	e0 92 65 02 	sts	0x0265, r14
    24fc:	10 92 ed 01 	sts	0x01ED, r1
    2500:	30 93 75 01 	sts	0x0175, r19
    2504:	c0 93 de 02 	sts	0x02DE, r28
    2508:	92 e8       	ldi	r25, 0x82	; 130
    250a:	90 93 66 02 	sts	0x0266, r25
    250e:	c0 93 ee 01 	sts	0x01EE, r28
    2512:	30 93 76 01 	sts	0x0176, r19
    2516:	c0 93 df 02 	sts	0x02DF, r28
    251a:	c0 93 67 02 	sts	0x0267, r28
    251e:	c0 93 ef 01 	sts	0x01EF, r28
    2522:	10 92 77 01 	sts	0x0177, r1
    2526:	10 92 e0 02 	sts	0x02E0, r1
    252a:	10 92 68 02 	sts	0x0268, r1
    252e:	10 92 f0 01 	sts	0x01F0, r1
    2532:	10 92 78 01 	sts	0x0178, r1
    2536:	10 92 e1 02 	sts	0x02E1, r1
    253a:	94 e0       	ldi	r25, 0x04	; 4
    253c:	90 93 69 02 	sts	0x0269, r25
    2540:	10 92 f1 01 	sts	0x01F1, r1
    2544:	90 93 79 01 	sts	0x0179, r25
    2548:	e0 92 e2 02 	sts	0x02E2, r14
    254c:	47 e2       	ldi	r20, 0x27	; 39
    254e:	40 93 6a 02 	sts	0x026A, r20
    2552:	10 92 f2 01 	sts	0x01F2, r1
    2556:	44 e2       	ldi	r20, 0x24	; 36
    2558:	40 93 7a 01 	sts	0x017A, r20
    255c:	7b e1       	ldi	r23, 0x1B	; 27
    255e:	70 93 e3 02 	sts	0x02E3, r23
    2562:	ef e3       	ldi	r30, 0x3F	; 63
    2564:	de 2e       	mov	r13, r30
    2566:	d0 92 6b 02 	sts	0x026B, r13
    256a:	10 92 f3 01 	sts	0x01F3, r1
    256e:	40 93 7b 01 	sts	0x017B, r20
    2572:	70 93 e4 02 	sts	0x02E4, r23
    2576:	d0 92 6c 02 	sts	0x026C, r13
    257a:	10 92 f4 01 	sts	0x01F4, r1
    257e:	40 93 7c 01 	sts	0x017C, r20
    2582:	10 92 e5 02 	sts	0x02E5, r1
    2586:	40 93 6d 02 	sts	0x026D, r20
    258a:	10 92 f5 01 	sts	0x01F5, r1
    258e:	40 93 7d 01 	sts	0x017D, r20
    2592:	10 92 e6 02 	sts	0x02E6, r1
    2596:	10 92 6e 02 	sts	0x026E, r1
    259a:	10 92 f6 01 	sts	0x01F6, r1
    259e:	10 92 7e 01 	sts	0x017E, r1
    25a2:	10 92 e7 02 	sts	0x02E7, r1
    25a6:	30 93 6f 02 	sts	0x026F, r19
    25aa:	10 92 f7 01 	sts	0x01F7, r1
    25ae:	30 93 7f 01 	sts	0x017F, r19
    25b2:	80 93 e8 02 	sts	0x02E8, r24
    25b6:	e0 92 70 02 	sts	0x0270, r14
    25ba:	10 92 f8 01 	sts	0x01F8, r1
    25be:	30 93 80 01 	sts	0x0180, r19
    25c2:	10 92 e9 02 	sts	0x02E9, r1
    25c6:	30 93 71 02 	sts	0x0271, r19
    25ca:	10 92 f9 01 	sts	0x01F9, r1
    25ce:	30 93 81 01 	sts	0x0181, r19
    25d2:	10 92 ea 02 	sts	0x02EA, r1
    25d6:	38 e0       	ldi	r19, 0x08	; 8
    25d8:	30 93 72 02 	sts	0x0272, r19
    25dc:	10 92 fa 01 	sts	0x01FA, r1
    25e0:	30 93 82 01 	sts	0x0182, r19
    25e4:	77 e0       	ldi	r23, 0x07	; 7
    25e6:	70 93 eb 02 	sts	0x02EB, r23
    25ea:	0f e0       	ldi	r16, 0x0F	; 15
    25ec:	00 93 73 02 	sts	0x0273, r16
    25f0:	10 92 fb 01 	sts	0x01FB, r1
    25f4:	30 93 83 01 	sts	0x0183, r19
    25f8:	70 93 ec 02 	sts	0x02EC, r23
    25fc:	00 93 74 02 	sts	0x0274, r16
    2600:	10 92 fc 01 	sts	0x01FC, r1
    2604:	30 93 84 01 	sts	0x0184, r19
    2608:	10 92 ed 02 	sts	0x02ED, r1
    260c:	30 93 75 02 	sts	0x0275, r19
    2610:	10 92 fd 01 	sts	0x01FD, r1
    2614:	30 93 85 01 	sts	0x0185, r19
    2618:	10 92 ee 02 	sts	0x02EE, r1
    261c:	d0 e2       	ldi	r29, 0x20	; 32
    261e:	d0 93 76 02 	sts	0x0276, r29
    2622:	10 92 fe 01 	sts	0x01FE, r1
    2626:	d0 93 86 01 	sts	0x0186, r29
    262a:	4f e1       	ldi	r20, 0x1F	; 31
    262c:	40 93 ef 02 	sts	0x02EF, r20
    2630:	d0 92 77 02 	sts	0x0277, r13
    2634:	10 92 ff 01 	sts	0x01FF, r1
    2638:	d0 93 87 01 	sts	0x0187, r29
    263c:	40 93 f0 02 	sts	0x02F0, r20
    2640:	d0 92 78 02 	sts	0x0278, r13
    2644:	10 92 00 02 	sts	0x0200, r1
    2648:	d0 93 88 01 	sts	0x0188, r29
    264c:	10 92 f1 02 	sts	0x02F1, r1
    2650:	d0 93 79 02 	sts	0x0279, r29
    2654:	10 92 01 02 	sts	0x0201, r1
    2658:	d0 93 89 01 	sts	0x0189, r29
    265c:	10 92 f2 02 	sts	0x02F2, r1
    2660:	10 92 7a 02 	sts	0x027A, r1
    2664:	10 92 02 02 	sts	0x0202, r1
    2668:	10 92 8a 01 	sts	0x018A, r1
    266c:	20 93 f3 02 	sts	0x02F3, r18
    2670:	60 93 7b 02 	sts	0x027B, r22
    2674:	20 93 03 02 	sts	0x0203, r18
    2678:	80 93 8b 01 	sts	0x018B, r24
    267c:	c0 92 f4 02 	sts	0x02F4, r12
    2680:	b0 92 7c 02 	sts	0x027C, r11
    2684:	c0 92 04 02 	sts	0x0204, r12
    2688:	80 93 8c 01 	sts	0x018C, r24
    268c:	20 93 f5 02 	sts	0x02F5, r18
    2690:	60 93 7d 02 	sts	0x027D, r22
    2694:	20 93 05 02 	sts	0x0205, r18
    2698:	80 93 8d 01 	sts	0x018D, r24
    269c:	10 92 f6 02 	sts	0x02F6, r1
    26a0:	10 92 7e 02 	sts	0x027E, r1
    26a4:	10 92 06 02 	sts	0x0206, r1
    26a8:	10 92 8e 01 	sts	0x018E, r1
    26ac:	90 93 f7 02 	sts	0x02F7, r25
    26b0:	90 93 7f 02 	sts	0x027F, r25
    26b4:	10 92 07 02 	sts	0x0207, r1
    26b8:	90 93 8f 01 	sts	0x018F, r25
    26bc:	90 93 f8 02 	sts	0x02F8, r25
    26c0:	90 93 80 02 	sts	0x0280, r25
    26c4:	10 92 08 02 	sts	0x0208, r1
    26c8:	90 93 90 01 	sts	0x0190, r25
    26cc:	10 92 f9 02 	sts	0x02F9, r1
    26d0:	10 92 81 02 	sts	0x0281, r1
    26d4:	10 92 09 02 	sts	0x0209, r1
    26d8:	10 92 91 01 	sts	0x0191, r1
    26dc:	10 92 fa 02 	sts	0x02FA, r1
    26e0:	10 92 82 02 	sts	0x0282, r1
    26e4:	10 92 0a 02 	sts	0x020A, r1
    26e8:	10 92 92 01 	sts	0x0192, r1
    26ec:	10 92 fb 02 	sts	0x02FB, r1
    26f0:	80 93 83 02 	sts	0x0283, r24
    26f4:	10 92 0b 02 	sts	0x020B, r1
    26f8:	80 93 93 01 	sts	0x0193, r24
    26fc:	10 92 fc 02 	sts	0x02FC, r1
    2700:	60 93 84 02 	sts	0x0284, r22
    2704:	10 92 0c 02 	sts	0x020C, r1
    2708:	60 93 94 01 	sts	0x0194, r22
    270c:	fe e0       	ldi	r31, 0x0E	; 14
    270e:	df 2e       	mov	r13, r31
    2710:	d0 92 fd 02 	sts	0x02FD, r13
    2714:	40 93 85 02 	sts	0x0285, r20
    2718:	10 92 0d 02 	sts	0x020D, r1
    271c:	60 93 95 01 	sts	0x0195, r22
    2720:	10 92 fe 02 	sts	0x02FE, r1
    2724:	60 93 86 02 	sts	0x0286, r22
    2728:	10 92 0e 02 	sts	0x020E, r1
    272c:	60 93 96 01 	sts	0x0196, r22
    2730:	10 92 ff 02 	sts	0x02FF, r1
    2734:	10 92 87 02 	sts	0x0287, r1
    2738:	10 92 0f 02 	sts	0x020F, r1
    273c:	10 92 97 01 	sts	0x0197, r1
    2740:	10 92 00 03 	sts	0x0300, r1
    2744:	10 92 88 02 	sts	0x0288, r1
    2748:	10 92 10 02 	sts	0x0210, r1
    274c:	10 92 98 01 	sts	0x0198, r1
    2750:	10 92 01 03 	sts	0x0301, r1
    2754:	10 92 89 02 	sts	0x0289, r1
    2758:	10 92 11 02 	sts	0x0211, r1
    275c:	10 92 99 01 	sts	0x0199, r1
    2760:	10 92 02 03 	sts	0x0302, r1
    2764:	30 93 8a 02 	sts	0x028A, r19
    2768:	10 92 12 02 	sts	0x0212, r1
    276c:	30 93 9a 01 	sts	0x019A, r19
    2770:	67 e4       	ldi	r22, 0x47	; 71
    2772:	60 93 03 03 	sts	0x0303, r22
    2776:	6f e4       	ldi	r22, 0x4F	; 79
    2778:	60 93 8b 02 	sts	0x028B, r22
    277c:	50 93 13 02 	sts	0x0213, r21
    2780:	30 93 9b 01 	sts	0x019B, r19
    2784:	10 93 04 03 	sts	0x0304, r17
    2788:	68 ec       	ldi	r22, 0xC8	; 200
    278a:	60 93 8c 02 	sts	0x028C, r22
    278e:	10 93 14 02 	sts	0x0214, r17
    2792:	30 93 9c 01 	sts	0x019C, r19
    2796:	50 93 05 03 	sts	0x0305, r21
    279a:	50 93 8d 02 	sts	0x028D, r21
    279e:	50 93 15 02 	sts	0x0215, r21
    27a2:	10 92 9d 01 	sts	0x019D, r1
    27a6:	10 92 06 03 	sts	0x0306, r1
    27aa:	10 92 8e 02 	sts	0x028E, r1
    27ae:	10 92 16 02 	sts	0x0216, r1
    27b2:	10 92 9e 01 	sts	0x019E, r1
    27b6:	10 92 07 03 	sts	0x0307, r1
    27ba:	20 93 8f 02 	sts	0x028F, r18
    27be:	10 92 17 02 	sts	0x0217, r1
    27c2:	20 93 9f 01 	sts	0x019F, r18
    27c6:	00 93 08 03 	sts	0x0308, r16
    27ca:	40 93 90 02 	sts	0x0290, r20
    27ce:	10 92 18 02 	sts	0x0218, r1
    27d2:	20 93 a0 01 	sts	0x01A0, r18
    27d6:	00 93 09 03 	sts	0x0309, r16
    27da:	40 93 91 02 	sts	0x0291, r20
    27de:	10 92 19 02 	sts	0x0219, r1
    27e2:	20 93 a1 01 	sts	0x01A1, r18
    27e6:	10 92 0a 03 	sts	0x030A, r1
    27ea:	20 93 92 02 	sts	0x0292, r18
    27ee:	10 92 1a 02 	sts	0x021A, r1
    27f2:	20 93 a2 01 	sts	0x01A2, r18
    27f6:	10 92 0b 03 	sts	0x030B, r1
    27fa:	10 92 93 02 	sts	0x0293, r1
    27fe:	10 92 1b 02 	sts	0x021B, r1
    2802:	10 92 a3 01 	sts	0x01A3, r1
    2806:	10 92 0c 03 	sts	0x030C, r1
    280a:	10 92 94 02 	sts	0x0294, r1
    280e:	10 92 1c 02 	sts	0x021C, r1
    2812:	10 92 a4 01 	sts	0x01A4, r1
    2816:	dd 96       	adiw	r26, 0x3d	; 61
    2818:	3c 93       	st	X, r19
    281a:	dd 97       	sbiw	r26, 0x3d	; 61
    281c:	f2 01       	movw	r30, r4
    281e:	35 af       	sts	0x75, r19
    2820:	f4 01       	movw	r30, r8
    2822:	15 ae       	sts	0xb5, r17
    2824:	f3 01       	movw	r30, r6
    2826:	35 af       	sts	0x75, r19
    2828:	de 96       	adiw	r26, 0x3e	; 62
    282a:	3c 93       	st	X, r19
    282c:	de 97       	sbiw	r26, 0x3e	; 62
    282e:	f2 01       	movw	r30, r4
    2830:	36 af       	sts	0x76, r19
    2832:	f4 01       	movw	r30, r8
    2834:	16 ae       	sts	0xb6, r17
    2836:	f3 01       	movw	r30, r6
    2838:	36 af       	sts	0x76, r19
    283a:	df 96       	adiw	r26, 0x3f	; 63
    283c:	1c 92       	st	X, r1
    283e:	df 97       	sbiw	r26, 0x3f	; 63
    2840:	f2 01       	movw	r30, r4
    2842:	17 ae       	sts	0xb7, r17
    2844:	f4 01       	movw	r30, r8
    2846:	17 ae       	sts	0xb7, r17
    2848:	f3 01       	movw	r30, r6
    284a:	17 ae       	sts	0xb7, r17
    284c:	10 92 10 03 	sts	0x0310, r1
    2850:	10 92 98 02 	sts	0x0298, r1
    2854:	10 92 20 02 	sts	0x0220, r1
    2858:	10 92 a8 01 	sts	0x01A8, r1
    285c:	10 92 11 03 	sts	0x0311, r1
    2860:	10 92 99 02 	sts	0x0299, r1
    2864:	10 92 21 02 	sts	0x0221, r1
    2868:	10 92 a9 01 	sts	0x01A9, r1
    286c:	34 e4       	ldi	r19, 0x44	; 68
    286e:	30 93 12 03 	sts	0x0312, r19
    2872:	30 93 9a 02 	sts	0x029A, r19
    2876:	50 93 22 02 	sts	0x0222, r21
    287a:	90 93 aa 01 	sts	0x01AA, r25
    287e:	34 ec       	ldi	r19, 0xC4	; 196
    2880:	30 93 13 03 	sts	0x0313, r19
    2884:	30 93 9b 02 	sts	0x029B, r19
    2888:	10 93 23 02 	sts	0x0223, r17
    288c:	90 93 ab 01 	sts	0x01AB, r25
    2890:	10 93 14 03 	sts	0x0314, r17
    2894:	10 93 9c 02 	sts	0x029C, r17
    2898:	10 93 24 02 	sts	0x0224, r17
    289c:	10 92 ac 01 	sts	0x01AC, r1
    28a0:	c0 93 15 03 	sts	0x0315, r28
    28a4:	c0 93 9d 02 	sts	0x029D, r28
    28a8:	c0 93 25 02 	sts	0x0225, r28
    28ac:	10 92 ad 01 	sts	0x01AD, r1
    28b0:	10 92 16 03 	sts	0x0316, r1
    28b4:	10 92 9e 02 	sts	0x029E, r1
    28b8:	10 92 26 02 	sts	0x0226, r1
    28bc:	10 92 ae 01 	sts	0x01AE, r1
    28c0:	10 92 17 03 	sts	0x0317, r1
    28c4:	90 93 9f 02 	sts	0x029F, r25
    28c8:	10 92 27 02 	sts	0x0227, r1
    28cc:	90 93 af 01 	sts	0x01AF, r25
    28d0:	e0 92 18 03 	sts	0x0318, r14
    28d4:	70 93 a0 02 	sts	0x02A0, r23
    28d8:	10 92 28 02 	sts	0x0228, r1
    28dc:	90 93 b0 01 	sts	0x01B0, r25
    28e0:	10 92 19 03 	sts	0x0319, r1
    28e4:	90 93 a1 02 	sts	0x02A1, r25
    28e8:	10 92 29 02 	sts	0x0229, r1
    28ec:	90 93 b1 01 	sts	0x01B1, r25
    28f0:	10 92 1a 03 	sts	0x031A, r1
    28f4:	10 92 a2 02 	sts	0x02A2, r1
    28f8:	10 92 2a 02 	sts	0x022A, r1
    28fc:	10 92 b2 01 	sts	0x01B2, r1
    2900:	10 92 1b 03 	sts	0x031B, r1
    2904:	10 92 a3 02 	sts	0x02A3, r1
    2908:	10 92 2b 02 	sts	0x022B, r1
    290c:	10 92 b3 01 	sts	0x01B3, r1
    2910:	10 92 1c 03 	sts	0x031C, r1
    2914:	20 93 a4 02 	sts	0x02A4, r18
    2918:	10 92 2c 02 	sts	0x022C, r1
    291c:	20 93 b4 01 	sts	0x01B4, r18
    2920:	00 93 1d 03 	sts	0x031D, r16
    2924:	40 93 a5 02 	sts	0x02A5, r20
    2928:	10 92 2d 02 	sts	0x022D, r1
    292c:	20 93 b5 01 	sts	0x01B5, r18
    2930:	00 93 1e 03 	sts	0x031E, r16
    2934:	40 93 a6 02 	sts	0x02A6, r20
    2938:	10 92 2e 02 	sts	0x022E, r1
    293c:	20 93 b6 01 	sts	0x01B6, r18
    2940:	00 93 1f 03 	sts	0x031F, r16
    2944:	40 93 a7 02 	sts	0x02A7, r20
    2948:	10 92 2f 02 	sts	0x022F, r1
    294c:	20 93 b7 01 	sts	0x01B7, r18
    2950:	00 93 20 03 	sts	0x0320, r16
    2954:	40 93 a8 02 	sts	0x02A8, r20
    2958:	10 92 30 02 	sts	0x0230, r1
    295c:	20 93 b8 01 	sts	0x01B8, r18
    2960:	10 92 21 03 	sts	0x0321, r1
    2964:	20 93 a9 02 	sts	0x02A9, r18
    2968:	10 92 31 02 	sts	0x0231, r1
    296c:	20 93 b9 01 	sts	0x01B9, r18
    2970:	10 92 22 03 	sts	0x0322, r1
    2974:	10 92 aa 02 	sts	0x02AA, r1
    2978:	10 92 32 02 	sts	0x0232, r1
    297c:	10 92 ba 01 	sts	0x01BA, r1
    2980:	10 92 23 03 	sts	0x0323, r1
    2984:	10 92 ab 02 	sts	0x02AB, r1
    2988:	10 92 33 02 	sts	0x0233, r1
    298c:	10 92 bb 01 	sts	0x01BB, r1
    2990:	50 93 24 03 	sts	0x0324, r21
    2994:	50 93 ac 02 	sts	0x02AC, r21
    2998:	50 93 34 02 	sts	0x0234, r21
    299c:	10 92 bc 01 	sts	0x01BC, r1
    29a0:	20 ee       	ldi	r18, 0xE0	; 224
    29a2:	20 93 25 03 	sts	0x0325, r18
    29a6:	20 93 ad 02 	sts	0x02AD, r18
    29aa:	20 93 35 02 	sts	0x0235, r18
    29ae:	10 92 bd 01 	sts	0x01BD, r1
    29b2:	10 93 26 03 	sts	0x0326, r17
    29b6:	30 93 ae 02 	sts	0x02AE, r19
    29ba:	10 93 36 02 	sts	0x0236, r17
    29be:	90 93 be 01 	sts	0x01BE, r25
    29c2:	33 e8       	ldi	r19, 0x83	; 131
    29c4:	30 93 27 03 	sts	0x0327, r19
    29c8:	37 e8       	ldi	r19, 0x87	; 135
    29ca:	30 93 af 02 	sts	0x02AF, r19
    29ce:	c0 93 37 02 	sts	0x0237, r28
    29d2:	90 93 bf 01 	sts	0x01BF, r25
    29d6:	e0 92 28 03 	sts	0x0328, r14
    29da:	70 93 b0 02 	sts	0x02B0, r23
    29de:	10 92 38 02 	sts	0x0238, r1
    29e2:	90 93 c0 01 	sts	0x01C0, r25
    29e6:	10 92 29 03 	sts	0x0329, r1
    29ea:	90 93 b1 02 	sts	0x02B1, r25
    29ee:	10 92 39 02 	sts	0x0239, r1
    29f2:	90 93 c1 01 	sts	0x01C1, r25
    29f6:	10 92 2a 03 	sts	0x032A, r1
    29fa:	10 92 b2 02 	sts	0x02B2, r1
    29fe:	10 92 3a 02 	sts	0x023A, r1
    2a02:	10 92 c2 01 	sts	0x01C2, r1
    2a06:	10 92 2b 03 	sts	0x032B, r1
    2a0a:	10 92 b3 02 	sts	0x02B3, r1
    2a0e:	10 92 3b 02 	sts	0x023B, r1
    2a12:	10 92 c3 01 	sts	0x01C3, r1
    2a16:	10 92 2c 03 	sts	0x032C, r1
    2a1a:	10 92 b4 02 	sts	0x02B4, r1
    2a1e:	10 92 3c 02 	sts	0x023C, r1
    2a22:	10 92 c4 01 	sts	0x01C4, r1
    2a26:	d0 93 2d 03 	sts	0x032D, r29
    2a2a:	d0 93 b5 02 	sts	0x02B5, r29
    2a2e:	10 92 3d 02 	sts	0x023D, r1
    2a32:	d0 93 c5 01 	sts	0x01C5, r29
    2a36:	91 e2       	ldi	r25, 0x21	; 33
    2a38:	90 93 2e 03 	sts	0x032E, r25
    2a3c:	90 93 b6 02 	sts	0x02B6, r25
    2a40:	10 92 3e 02 	sts	0x023E, r1
    2a44:	90 93 c6 01 	sts	0x01C6, r25
    2a48:	80 93 2f 03 	sts	0x032F, r24
    2a4c:	80 93 b7 02 	sts	0x02B7, r24
    2a50:	10 92 3f 02 	sts	0x023F, r1
    2a54:	80 93 c7 01 	sts	0x01C7, r24
    2a58:	80 93 30 03 	sts	0x0330, r24
    2a5c:	80 93 b8 02 	sts	0x02B8, r24
    2a60:	10 92 40 02 	sts	0x0240, r1
    2a64:	80 93 c8 01 	sts	0x01C8, r24
    2a68:	80 93 31 03 	sts	0x0331, r24
    2a6c:	80 93 b9 02 	sts	0x02B9, r24
    2a70:	10 92 41 02 	sts	0x0241, r1
    2a74:	80 93 c9 01 	sts	0x01C9, r24
    2a78:	80 93 32 03 	sts	0x0332, r24
    2a7c:	80 93 ba 02 	sts	0x02BA, r24
    2a80:	10 92 42 02 	sts	0x0242, r1
    2a84:	80 93 ca 01 	sts	0x01CA, r24
    2a88:	80 93 33 03 	sts	0x0333, r24
    2a8c:	80 93 bb 02 	sts	0x02BB, r24
    2a90:	10 92 43 02 	sts	0x0243, r1
    2a94:	80 93 cb 01 	sts	0x01CB, r24
    2a98:	80 93 34 03 	sts	0x0334, r24
    2a9c:	80 93 bc 02 	sts	0x02BC, r24
    2aa0:	10 92 44 02 	sts	0x0244, r1
    2aa4:	80 93 cc 01 	sts	0x01CC, r24
    2aa8:	70 93 35 03 	sts	0x0335, r23
    2aac:	70 93 bd 02 	sts	0x02BD, r23
    2ab0:	10 92 45 02 	sts	0x0245, r1
    2ab4:	70 93 cd 01 	sts	0x01CD, r23
    2ab8:	70 93 36 03 	sts	0x0336, r23
    2abc:	70 93 be 02 	sts	0x02BE, r23
    2ac0:	10 92 46 02 	sts	0x0246, r1
    2ac4:	70 93 ce 01 	sts	0x01CE, r23
    2ac8:	40 93 37 03 	sts	0x0337, r20
    2acc:	40 93 bf 02 	sts	0x02BF, r20
    2ad0:	10 92 47 02 	sts	0x0247, r1
    2ad4:	40 93 cf 01 	sts	0x01CF, r20
    2ad8:	40 93 38 03 	sts	0x0338, r20
    2adc:	40 93 c0 02 	sts	0x02C0, r20
    2ae0:	10 92 48 02 	sts	0x0248, r1
    2ae4:	40 93 d0 01 	sts	0x01D0, r20
    2ae8:	80 93 39 03 	sts	0x0339, r24
    2aec:	80 93 c1 02 	sts	0x02C1, r24
    2af0:	10 92 49 02 	sts	0x0249, r1
    2af4:	80 93 d1 01 	sts	0x01D1, r24
    2af8:	80 93 3a 03 	sts	0x033A, r24
    2afc:	80 93 c2 02 	sts	0x02C2, r24
    2b00:	10 92 4a 02 	sts	0x024A, r1
    2b04:	80 93 d2 01 	sts	0x01D2, r24
    2b08:	f0 92 3b 03 	sts	0x033B, r15
    2b0c:	f0 92 c3 02 	sts	0x02C3, r15
    2b10:	50 93 4b 02 	sts	0x024B, r21
    2b14:	80 93 d3 01 	sts	0x01D3, r24
    2b18:	91 ee       	ldi	r25, 0xE1	; 225
    2b1a:	90 93 3c 03 	sts	0x033C, r25
    2b1e:	90 93 c4 02 	sts	0x02C4, r25
    2b22:	20 93 4c 02 	sts	0x024C, r18
    2b26:	80 93 d4 01 	sts	0x01D4, r24
    2b2a:	90 93 3d 03 	sts	0x033D, r25
    2b2e:	90 93 c5 02 	sts	0x02C5, r25
    2b32:	20 93 4d 02 	sts	0x024D, r18
    2b36:	80 93 d5 01 	sts	0x01D5, r24
    2b3a:	f0 92 3e 03 	sts	0x033E, r15
    2b3e:	f0 92 c6 02 	sts	0x02C6, r15
    2b42:	50 93 4e 02 	sts	0x024E, r21
    2b46:	80 93 d6 01 	sts	0x01D6, r24
    2b4a:	80 93 3f 03 	sts	0x033F, r24
    2b4e:	80 93 c7 02 	sts	0x02C7, r24
    2b52:	10 92 4f 02 	sts	0x024F, r1
    2b56:	80 93 d7 01 	sts	0x01D7, r24
    2b5a:	80 93 40 03 	sts	0x0340, r24
    2b5e:	80 93 c8 02 	sts	0x02C8, r24
    2b62:	9e e1       	ldi	r25, 0x1E	; 30
    2b64:	90 93 50 02 	sts	0x0250, r25
    2b68:	80 93 d8 01 	sts	0x01D8, r24
    2b6c:	80 93 41 03 	sts	0x0341, r24
    2b70:	80 93 c9 02 	sts	0x02C9, r24
    2b74:	2e e3       	ldi	r18, 0x3E	; 62
    2b76:	20 93 51 02 	sts	0x0251, r18
    2b7a:	80 93 d9 01 	sts	0x01D9, r24
    2b7e:	80 93 42 03 	sts	0x0342, r24
    2b82:	80 93 ca 02 	sts	0x02CA, r24
    2b86:	3e e6       	ldi	r19, 0x6E	; 110
    2b88:	30 93 52 02 	sts	0x0252, r19
    2b8c:	80 93 da 01 	sts	0x01DA, r24
    2b90:	80 93 43 03 	sts	0x0343, r24
    2b94:	80 93 cb 02 	sts	0x02CB, r24
    2b98:	48 ef       	ldi	r20, 0xF8	; 248
    2b9a:	40 93 53 02 	sts	0x0253, r20
    2b9e:	80 93 db 01 	sts	0x01DB, r24
    2ba2:	80 93 44 03 	sts	0x0344, r24
    2ba6:	80 93 cc 02 	sts	0x02CC, r24
    2baa:	30 93 54 02 	sts	0x0254, r19
    2bae:	80 93 dc 01 	sts	0x01DC, r24
    2bb2:	80 93 45 03 	sts	0x0345, r24
    2bb6:	80 93 cd 02 	sts	0x02CD, r24
    2bba:	20 93 55 02 	sts	0x0255, r18
    2bbe:	80 93 dd 01 	sts	0x01DD, r24
    2bc2:	80 93 46 03 	sts	0x0346, r24
    2bc6:	80 93 ce 02 	sts	0x02CE, r24
    2bca:	90 93 56 02 	sts	0x0256, r25
    2bce:	80 93 de 01 	sts	0x01DE, r24
    2bd2:	80 93 47 03 	sts	0x0347, r24
    2bd6:	80 93 cf 02 	sts	0x02CF, r24
    2bda:	10 92 57 02 	sts	0x0257, r1
    2bde:	80 93 df 01 	sts	0x01DF, r24
    2be2:	df 91       	pop	r29
    2be4:	cf 91       	pop	r28
    2be6:	1f 91       	pop	r17
    2be8:	0f 91       	pop	r16
    2bea:	ff 90       	pop	r15
    2bec:	ef 90       	pop	r14
    2bee:	df 90       	pop	r13
    2bf0:	cf 90       	pop	r12
    2bf2:	bf 90       	pop	r11
    2bf4:	9f 90       	pop	r9
    2bf6:	8f 90       	pop	r8
    2bf8:	7f 90       	pop	r7
    2bfa:	6f 90       	pop	r6
    2bfc:	5f 90       	pop	r5
    2bfe:	4f 90       	pop	r4
    2c00:	08 95       	ret

00002c02 <loadLevel4>:
    2c02:	cf 92       	push	r12
    2c04:	df 92       	push	r13
    2c06:	ef 92       	push	r14
    2c08:	ff 92       	push	r15
    2c0a:	0f 93       	push	r16
    2c0c:	1f 93       	push	r17
    2c0e:	cf 93       	push	r28
    2c10:	df 93       	push	r29
    2c12:	a0 ed       	ldi	r26, 0xD0	; 208
    2c14:	b2 e0       	ldi	r27, 0x02	; 2
    2c16:	10 92 d0 02 	sts	0x02D0, r1
    2c1a:	c8 e5       	ldi	r28, 0x58	; 88
    2c1c:	cc 2e       	mov	r12, r28
    2c1e:	c2 e0       	ldi	r28, 0x02	; 2
    2c20:	dc 2e       	mov	r13, r28
    2c22:	10 92 58 02 	sts	0x0258, r1
    2c26:	c0 ee       	ldi	r28, 0xE0	; 224
    2c28:	d1 e0       	ldi	r29, 0x01	; 1
    2c2a:	1f e8       	ldi	r17, 0x8F	; 143
    2c2c:	10 93 e0 01 	sts	0x01E0, r17
    2c30:	88 e6       	ldi	r24, 0x68	; 104
    2c32:	91 e0       	ldi	r25, 0x01	; 1
    2c34:	10 93 68 01 	sts	0x0168, r17
    2c38:	10 92 d1 02 	sts	0x02D1, r1
    2c3c:	10 92 59 02 	sts	0x0259, r1
    2c40:	10 93 e1 01 	sts	0x01E1, r17
    2c44:	10 93 69 01 	sts	0x0169, r17
    2c48:	10 92 d2 02 	sts	0x02D2, r1
    2c4c:	10 92 5a 02 	sts	0x025A, r1
    2c50:	77 e8       	ldi	r23, 0x87	; 135
    2c52:	70 93 e2 01 	sts	0x01E2, r23
    2c56:	70 93 6a 01 	sts	0x016A, r23
    2c5a:	10 92 d3 02 	sts	0x02D3, r1
    2c5e:	10 92 5b 02 	sts	0x025B, r1
    2c62:	03 e8       	ldi	r16, 0x83	; 131
    2c64:	f0 2e       	mov	r15, r16
    2c66:	f0 92 e3 01 	sts	0x01E3, r15
    2c6a:	f0 92 6b 01 	sts	0x016B, r15
    2c6e:	10 92 d4 02 	sts	0x02D4, r1
    2c72:	10 92 5c 02 	sts	0x025C, r1
    2c76:	41 ec       	ldi	r20, 0xC1	; 193
    2c78:	40 93 e4 01 	sts	0x01E4, r20
    2c7c:	40 93 6c 01 	sts	0x016C, r20
    2c80:	10 92 d5 02 	sts	0x02D5, r1
    2c84:	10 92 5d 02 	sts	0x025D, r1
    2c88:	40 93 e5 01 	sts	0x01E5, r20
    2c8c:	40 93 6d 01 	sts	0x016D, r20
    2c90:	10 92 d6 02 	sts	0x02D6, r1
    2c94:	10 92 5e 02 	sts	0x025E, r1
    2c98:	40 93 e6 01 	sts	0x01E6, r20
    2c9c:	40 93 6e 01 	sts	0x016E, r20
    2ca0:	10 92 d7 02 	sts	0x02D7, r1
    2ca4:	10 92 5f 02 	sts	0x025F, r1
    2ca8:	40 93 e7 01 	sts	0x01E7, r20
    2cac:	40 93 6f 01 	sts	0x016F, r20
    2cb0:	10 92 d8 02 	sts	0x02D8, r1
    2cb4:	10 92 60 02 	sts	0x0260, r1
    2cb8:	40 93 e8 01 	sts	0x01E8, r20
    2cbc:	40 93 70 01 	sts	0x0170, r20
    2cc0:	51 e0       	ldi	r21, 0x01	; 1
    2cc2:	50 93 d9 02 	sts	0x02D9, r21
    2cc6:	10 92 61 02 	sts	0x0261, r1
    2cca:	20 ec       	ldi	r18, 0xC0	; 192
    2ccc:	20 93 e9 01 	sts	0x01E9, r18
    2cd0:	20 93 71 01 	sts	0x0171, r18
    2cd4:	50 93 da 02 	sts	0x02DA, r21
    2cd8:	10 92 62 02 	sts	0x0262, r1
    2cdc:	20 93 ea 01 	sts	0x01EA, r18
    2ce0:	20 93 72 01 	sts	0x0172, r18
    2ce4:	10 92 db 02 	sts	0x02DB, r1
    2ce8:	10 92 63 02 	sts	0x0263, r1
    2cec:	40 93 eb 01 	sts	0x01EB, r20
    2cf0:	40 93 73 01 	sts	0x0173, r20
    2cf4:	10 92 dc 02 	sts	0x02DC, r1
    2cf8:	10 92 64 02 	sts	0x0264, r1
    2cfc:	40 93 ec 01 	sts	0x01EC, r20
    2d00:	40 93 74 01 	sts	0x0174, r20
    2d04:	10 92 dd 02 	sts	0x02DD, r1
    2d08:	10 92 65 02 	sts	0x0265, r1
    2d0c:	40 93 ed 01 	sts	0x01ED, r20
    2d10:	40 93 75 01 	sts	0x0175, r20
    2d14:	10 92 de 02 	sts	0x02DE, r1
    2d18:	10 92 66 02 	sts	0x0266, r1
    2d1c:	40 93 ee 01 	sts	0x01EE, r20
    2d20:	40 93 76 01 	sts	0x0176, r20
    2d24:	10 92 df 02 	sts	0x02DF, r1
    2d28:	10 92 67 02 	sts	0x0267, r1
    2d2c:	40 93 ef 01 	sts	0x01EF, r20
    2d30:	40 93 77 01 	sts	0x0177, r20
    2d34:	10 92 e0 02 	sts	0x02E0, r1
    2d38:	10 92 68 02 	sts	0x0268, r1
    2d3c:	21 ee       	ldi	r18, 0xE1	; 225
    2d3e:	e2 2e       	mov	r14, r18
    2d40:	e0 92 f0 01 	sts	0x01F0, r14
    2d44:	e0 92 78 01 	sts	0x0178, r14
    2d48:	10 92 e1 02 	sts	0x02E1, r1
    2d4c:	10 92 69 02 	sts	0x0269, r1
    2d50:	21 e8       	ldi	r18, 0x81	; 129
    2d52:	20 93 f1 01 	sts	0x01F1, r18
    2d56:	20 93 79 01 	sts	0x0179, r18
    2d5a:	10 92 e2 02 	sts	0x02E2, r1
    2d5e:	10 92 6a 02 	sts	0x026A, r1
    2d62:	20 93 f2 01 	sts	0x01F2, r18
    2d66:	20 93 7a 01 	sts	0x017A, r18
    2d6a:	50 93 e3 02 	sts	0x02E3, r21
    2d6e:	10 92 6b 02 	sts	0x026B, r1
    2d72:	30 e8       	ldi	r19, 0x80	; 128
    2d74:	30 93 f3 01 	sts	0x01F3, r19
    2d78:	30 93 7b 01 	sts	0x017B, r19
    2d7c:	50 93 e4 02 	sts	0x02E4, r21
    2d80:	10 92 6c 02 	sts	0x026C, r1
    2d84:	30 93 f4 01 	sts	0x01F4, r19
    2d88:	30 93 7c 01 	sts	0x017C, r19
    2d8c:	10 92 e5 02 	sts	0x02E5, r1
    2d90:	10 92 6d 02 	sts	0x026D, r1
    2d94:	20 93 f5 01 	sts	0x01F5, r18
    2d98:	20 93 7d 01 	sts	0x017D, r18
    2d9c:	10 92 e6 02 	sts	0x02E6, r1
    2da0:	10 92 6e 02 	sts	0x026E, r1
    2da4:	20 93 f6 01 	sts	0x01F6, r18
    2da8:	20 93 7e 01 	sts	0x017E, r18
    2dac:	10 92 e7 02 	sts	0x02E7, r1
    2db0:	10 92 6f 02 	sts	0x026F, r1
    2db4:	20 93 f7 01 	sts	0x01F7, r18
    2db8:	20 93 7f 01 	sts	0x017F, r18
    2dbc:	10 92 e8 02 	sts	0x02E8, r1
    2dc0:	10 92 70 02 	sts	0x0270, r1
    2dc4:	20 93 f8 01 	sts	0x01F8, r18
    2dc8:	20 93 80 01 	sts	0x0180, r18
    2dcc:	50 93 e9 02 	sts	0x02E9, r21
    2dd0:	10 92 71 02 	sts	0x0271, r1
    2dd4:	30 93 f9 01 	sts	0x01F9, r19
    2dd8:	30 93 81 01 	sts	0x0181, r19
    2ddc:	50 93 ea 02 	sts	0x02EA, r21
    2de0:	10 92 72 02 	sts	0x0272, r1
    2de4:	30 93 fa 01 	sts	0x01FA, r19
    2de8:	30 93 82 01 	sts	0x0182, r19
    2dec:	60 e2       	ldi	r22, 0x20	; 32
    2dee:	60 93 eb 02 	sts	0x02EB, r22
    2df2:	60 93 73 02 	sts	0x0273, r22
    2df6:	37 ec       	ldi	r19, 0xC7	; 199
    2df8:	30 93 fb 01 	sts	0x01FB, r19
    2dfc:	07 ee       	ldi	r16, 0xE7	; 231
    2dfe:	00 93 83 01 	sts	0x0183, r16
    2e02:	10 92 ec 02 	sts	0x02EC, r1
    2e06:	10 92 74 02 	sts	0x0274, r1
    2e0a:	30 93 fc 01 	sts	0x01FC, r19
    2e0e:	30 93 84 01 	sts	0x0184, r19
    2e12:	10 92 ed 02 	sts	0x02ED, r1
    2e16:	10 92 75 02 	sts	0x0275, r1
    2e1a:	30 93 fd 01 	sts	0x01FD, r19
    2e1e:	30 93 85 01 	sts	0x0185, r19
    2e22:	10 92 ee 02 	sts	0x02EE, r1
    2e26:	10 92 76 02 	sts	0x0276, r1
    2e2a:	30 93 fe 01 	sts	0x01FE, r19
    2e2e:	30 93 86 01 	sts	0x0186, r19
    2e32:	10 92 ef 02 	sts	0x02EF, r1
    2e36:	10 92 77 02 	sts	0x0277, r1
    2e3a:	30 93 ff 01 	sts	0x01FF, r19
    2e3e:	30 93 87 01 	sts	0x0187, r19
    2e42:	10 92 f0 02 	sts	0x02F0, r1
    2e46:	10 92 78 02 	sts	0x0278, r1
    2e4a:	30 93 00 02 	sts	0x0200, r19
    2e4e:	30 93 88 01 	sts	0x0188, r19
    2e52:	10 92 f1 02 	sts	0x02F1, r1
    2e56:	10 92 79 02 	sts	0x0279, r1
    2e5a:	30 93 01 02 	sts	0x0201, r19
    2e5e:	30 93 89 01 	sts	0x0189, r19
    2e62:	10 92 f2 02 	sts	0x02F2, r1
    2e66:	10 92 7a 02 	sts	0x027A, r1
    2e6a:	30 93 02 02 	sts	0x0202, r19
    2e6e:	30 93 8a 01 	sts	0x018A, r19
    2e72:	60 93 f3 02 	sts	0x02F3, r22
    2e76:	60 93 7b 02 	sts	0x027B, r22
    2e7a:	30 93 03 02 	sts	0x0203, r19
    2e7e:	00 93 8b 01 	sts	0x018B, r16
    2e82:	10 92 f4 02 	sts	0x02F4, r1
    2e86:	10 92 7c 02 	sts	0x027C, r1
    2e8a:	30 93 04 02 	sts	0x0204, r19
    2e8e:	30 93 8c 01 	sts	0x018C, r19
    2e92:	10 92 f5 02 	sts	0x02F5, r1
    2e96:	10 92 7d 02 	sts	0x027D, r1
    2e9a:	30 93 05 02 	sts	0x0205, r19
    2e9e:	30 93 8d 01 	sts	0x018D, r19
    2ea2:	10 92 f6 02 	sts	0x02F6, r1
    2ea6:	10 92 7e 02 	sts	0x027E, r1
    2eaa:	30 93 06 02 	sts	0x0206, r19
    2eae:	30 93 8e 01 	sts	0x018E, r19
    2eb2:	10 92 f7 02 	sts	0x02F7, r1
    2eb6:	10 92 7f 02 	sts	0x027F, r1
    2eba:	30 93 07 02 	sts	0x0207, r19
    2ebe:	30 93 8f 01 	sts	0x018F, r19
    2ec2:	10 92 f8 02 	sts	0x02F8, r1
    2ec6:	10 92 80 02 	sts	0x0280, r1
    2eca:	30 93 08 02 	sts	0x0208, r19
    2ece:	30 93 90 01 	sts	0x0190, r19
    2ed2:	60 93 f9 02 	sts	0x02F9, r22
    2ed6:	60 93 81 02 	sts	0x0281, r22
    2eda:	30 93 09 02 	sts	0x0209, r19
    2ede:	00 93 91 01 	sts	0x0191, r16
    2ee2:	10 92 fa 02 	sts	0x02FA, r1
    2ee6:	10 92 82 02 	sts	0x0282, r1
    2eea:	30 93 0a 02 	sts	0x020A, r19
    2eee:	30 93 92 01 	sts	0x0192, r19
    2ef2:	10 92 fb 02 	sts	0x02FB, r1
    2ef6:	10 92 83 02 	sts	0x0283, r1
    2efa:	30 93 0b 02 	sts	0x020B, r19
    2efe:	30 93 93 01 	sts	0x0193, r19
    2f02:	10 92 fc 02 	sts	0x02FC, r1
    2f06:	10 92 84 02 	sts	0x0284, r1
    2f0a:	30 93 0c 02 	sts	0x020C, r19
    2f0e:	30 93 94 01 	sts	0x0194, r19
    2f12:	10 92 fd 02 	sts	0x02FD, r1
    2f16:	10 92 85 02 	sts	0x0285, r1
    2f1a:	30 93 0d 02 	sts	0x020D, r19
    2f1e:	30 93 95 01 	sts	0x0195, r19
    2f22:	10 92 fe 02 	sts	0x02FE, r1
    2f26:	10 92 86 02 	sts	0x0286, r1
    2f2a:	30 93 0e 02 	sts	0x020E, r19
    2f2e:	30 93 96 01 	sts	0x0196, r19
    2f32:	10 92 ff 02 	sts	0x02FF, r1
    2f36:	10 92 87 02 	sts	0x0287, r1
    2f3a:	30 93 0f 02 	sts	0x020F, r19
    2f3e:	30 93 97 01 	sts	0x0197, r19
    2f42:	10 92 00 03 	sts	0x0300, r1
    2f46:	10 92 88 02 	sts	0x0288, r1
    2f4a:	30 93 10 02 	sts	0x0210, r19
    2f4e:	30 93 98 01 	sts	0x0198, r19
    2f52:	60 93 01 03 	sts	0x0301, r22
    2f56:	60 93 89 02 	sts	0x0289, r22
    2f5a:	30 93 11 02 	sts	0x0211, r19
    2f5e:	00 93 99 01 	sts	0x0199, r16
    2f62:	10 92 02 03 	sts	0x0302, r1
    2f66:	10 92 8a 02 	sts	0x028A, r1
    2f6a:	30 93 12 02 	sts	0x0212, r19
    2f6e:	30 93 9a 01 	sts	0x019A, r19
    2f72:	10 92 03 03 	sts	0x0303, r1
    2f76:	10 92 8b 02 	sts	0x028B, r1
    2f7a:	30 93 13 02 	sts	0x0213, r19
    2f7e:	30 93 9b 01 	sts	0x019B, r19
    2f82:	10 92 04 03 	sts	0x0304, r1
    2f86:	10 92 8c 02 	sts	0x028C, r1
    2f8a:	30 93 14 02 	sts	0x0214, r19
    2f8e:	30 93 9c 01 	sts	0x019C, r19
    2f92:	10 92 05 03 	sts	0x0305, r1
    2f96:	10 92 8d 02 	sts	0x028D, r1
    2f9a:	30 93 15 02 	sts	0x0215, r19
    2f9e:	30 93 9d 01 	sts	0x019D, r19
    2fa2:	10 92 06 03 	sts	0x0306, r1
    2fa6:	10 92 8e 02 	sts	0x028E, r1
    2faa:	20 93 16 02 	sts	0x0216, r18
    2fae:	20 93 9e 01 	sts	0x019E, r18
    2fb2:	10 92 07 03 	sts	0x0307, r1
    2fb6:	10 92 8f 02 	sts	0x028F, r1
    2fba:	20 93 17 02 	sts	0x0217, r18
    2fbe:	20 93 9f 01 	sts	0x019F, r18
    2fc2:	52 e0       	ldi	r21, 0x02	; 2
    2fc4:	50 93 08 03 	sts	0x0308, r21
    2fc8:	50 93 90 02 	sts	0x0290, r21
    2fcc:	20 93 18 02 	sts	0x0218, r18
    2fd0:	f0 92 a0 01 	sts	0x01A0, r15
    2fd4:	10 92 09 03 	sts	0x0309, r1
    2fd8:	10 92 91 02 	sts	0x0291, r1
    2fdc:	20 93 19 02 	sts	0x0219, r18
    2fe0:	20 93 a1 01 	sts	0x01A1, r18
    2fe4:	10 92 0a 03 	sts	0x030A, r1
    2fe8:	10 92 92 02 	sts	0x0292, r1
    2fec:	20 93 1a 02 	sts	0x021A, r18
    2ff0:	20 93 a2 01 	sts	0x01A2, r18
    2ff4:	60 93 0b 03 	sts	0x030B, r22
    2ff8:	60 93 93 02 	sts	0x0293, r22
    2ffc:	40 93 1b 02 	sts	0x021B, r20
    3000:	e0 92 a3 01 	sts	0x01A3, r14
    3004:	10 92 0c 03 	sts	0x030C, r1
    3008:	10 92 94 02 	sts	0x0294, r1
    300c:	20 93 1c 02 	sts	0x021C, r18
    3010:	20 93 a4 01 	sts	0x01A4, r18
    3014:	dd 96       	adiw	r26, 0x3d	; 61
    3016:	1c 92       	st	X, r1
    3018:	dd 97       	sbiw	r26, 0x3d	; 61
    301a:	f6 01       	movw	r30, r12
    301c:	15 ae       	sts	0xb5, r17
    301e:	2d af       	sts	0x7d, r18
    3020:	fc 01       	movw	r30, r24
    3022:	25 af       	sts	0x75, r18
    3024:	de 96       	adiw	r26, 0x3e	; 62
    3026:	1c 92       	st	X, r1
    3028:	de 97       	sbiw	r26, 0x3e	; 62
    302a:	f6 01       	movw	r30, r12
    302c:	16 ae       	sts	0xb6, r17
    302e:	2e af       	sts	0x7e, r18
    3030:	fc 01       	movw	r30, r24
    3032:	26 af       	sts	0x76, r18
    3034:	df 96       	adiw	r26, 0x3f	; 63
    3036:	5c 93       	st	X, r21
    3038:	df 97       	sbiw	r26, 0x3f	; 63
    303a:	f6 01       	movw	r30, r12
    303c:	57 af       	sts	0x77, r21
    303e:	2f af       	sts	0x7f, r18
    3040:	fc 01       	movw	r30, r24
    3042:	f7 ae       	sts	0xb7, r31
    3044:	10 92 10 03 	sts	0x0310, r1
    3048:	10 92 98 02 	sts	0x0298, r1
    304c:	20 93 20 02 	sts	0x0220, r18
    3050:	20 93 a8 01 	sts	0x01A8, r18
    3054:	10 92 11 03 	sts	0x0311, r1
    3058:	10 92 99 02 	sts	0x0299, r1
    305c:	20 93 21 02 	sts	0x0221, r18
    3060:	20 93 a9 01 	sts	0x01A9, r18
    3064:	60 93 12 03 	sts	0x0312, r22
    3068:	60 93 9a 02 	sts	0x029A, r22
    306c:	40 93 22 02 	sts	0x0222, r20
    3070:	e0 92 aa 01 	sts	0x01AA, r14
    3074:	10 92 13 03 	sts	0x0313, r1
    3078:	10 92 9b 02 	sts	0x029B, r1
    307c:	20 93 23 02 	sts	0x0223, r18
    3080:	20 93 ab 01 	sts	0x01AB, r18
    3084:	10 92 14 03 	sts	0x0314, r1
    3088:	10 92 9c 02 	sts	0x029C, r1
    308c:	20 93 24 02 	sts	0x0224, r18
    3090:	20 93 ac 01 	sts	0x01AC, r18
    3094:	10 92 15 03 	sts	0x0315, r1
    3098:	10 92 9d 02 	sts	0x029D, r1
    309c:	20 93 25 02 	sts	0x0225, r18
    30a0:	20 93 ad 01 	sts	0x01AD, r18
    30a4:	50 93 16 03 	sts	0x0316, r21
    30a8:	50 93 9e 02 	sts	0x029E, r21
    30ac:	20 93 26 02 	sts	0x0226, r18
    30b0:	f0 92 ae 01 	sts	0x01AE, r15
    30b4:	10 92 17 03 	sts	0x0317, r1
    30b8:	10 92 9f 02 	sts	0x029F, r1
    30bc:	20 93 27 02 	sts	0x0227, r18
    30c0:	20 93 af 01 	sts	0x01AF, r18
    30c4:	10 92 18 03 	sts	0x0318, r1
    30c8:	10 92 a0 02 	sts	0x02A0, r1
    30cc:	20 93 28 02 	sts	0x0228, r18
    30d0:	20 93 b0 01 	sts	0x01B0, r18
    30d4:	10 92 19 03 	sts	0x0319, r1
    30d8:	10 92 a1 02 	sts	0x02A1, r1
    30dc:	40 93 29 02 	sts	0x0229, r20
    30e0:	40 93 b1 01 	sts	0x01B1, r20
    30e4:	10 92 1a 03 	sts	0x031A, r1
    30e8:	10 92 a2 02 	sts	0x02A2, r1
    30ec:	40 93 2a 02 	sts	0x022A, r20
    30f0:	40 93 b2 01 	sts	0x01B2, r20
    30f4:	10 92 1b 03 	sts	0x031B, r1
    30f8:	10 92 a3 02 	sts	0x02A3, r1
    30fc:	40 93 2b 02 	sts	0x022B, r20
    3100:	40 93 b3 01 	sts	0x01B3, r20
    3104:	10 92 1c 03 	sts	0x031C, r1
    3108:	10 92 a4 02 	sts	0x02A4, r1
    310c:	40 93 2c 02 	sts	0x022C, r20
    3110:	40 93 b4 01 	sts	0x01B4, r20
    3114:	10 92 1d 03 	sts	0x031D, r1
    3118:	10 92 a5 02 	sts	0x02A5, r1
    311c:	20 93 2d 02 	sts	0x022D, r18
    3120:	20 93 b5 01 	sts	0x01B5, r18
    3124:	10 92 1e 03 	sts	0x031E, r1
    3128:	10 92 a6 02 	sts	0x02A6, r1
    312c:	20 93 2e 02 	sts	0x022E, r18
    3130:	20 93 b6 01 	sts	0x01B6, r18
    3134:	10 92 1f 03 	sts	0x031F, r1
    3138:	10 92 a7 02 	sts	0x02A7, r1
    313c:	99 e8       	ldi	r25, 0x89	; 137
    313e:	90 93 2f 02 	sts	0x022F, r25
    3142:	90 93 b7 01 	sts	0x01B7, r25
    3146:	10 92 20 03 	sts	0x0320, r1
    314a:	10 92 a8 02 	sts	0x02A8, r1
    314e:	20 93 30 02 	sts	0x0230, r18
    3152:	20 93 b8 01 	sts	0x01B8, r18
    3156:	10 92 21 03 	sts	0x0321, r1
    315a:	10 92 a9 02 	sts	0x02A9, r1
    315e:	20 93 31 02 	sts	0x0231, r18
    3162:	20 93 b9 01 	sts	0x01B9, r18
    3166:	10 92 22 03 	sts	0x0322, r1
    316a:	10 92 aa 02 	sts	0x02AA, r1
    316e:	90 93 32 02 	sts	0x0232, r25
    3172:	90 93 ba 01 	sts	0x01BA, r25
    3176:	10 92 23 03 	sts	0x0323, r1
    317a:	10 92 ab 02 	sts	0x02AB, r1
    317e:	20 93 33 02 	sts	0x0233, r18
    3182:	20 93 bb 01 	sts	0x01BB, r18
    3186:	10 92 24 03 	sts	0x0324, r1
    318a:	10 92 ac 02 	sts	0x02AC, r1
    318e:	20 93 34 02 	sts	0x0234, r18
    3192:	20 93 bc 01 	sts	0x01BC, r18
    3196:	10 92 25 03 	sts	0x0325, r1
    319a:	10 92 ad 02 	sts	0x02AD, r1
    319e:	90 93 35 02 	sts	0x0235, r25
    31a2:	90 93 bd 01 	sts	0x01BD, r25
    31a6:	10 92 26 03 	sts	0x0326, r1
    31aa:	10 92 ae 02 	sts	0x02AE, r1
    31ae:	20 93 36 02 	sts	0x0236, r18
    31b2:	20 93 be 01 	sts	0x01BE, r18
    31b6:	10 92 27 03 	sts	0x0327, r1
    31ba:	10 92 af 02 	sts	0x02AF, r1
    31be:	20 93 37 02 	sts	0x0237, r18
    31c2:	20 93 bf 01 	sts	0x01BF, r18
    31c6:	10 92 28 03 	sts	0x0328, r1
    31ca:	10 92 b0 02 	sts	0x02B0, r1
    31ce:	70 93 38 02 	sts	0x0238, r23
    31d2:	70 93 c0 01 	sts	0x01C0, r23
    31d6:	10 92 29 03 	sts	0x0329, r1
    31da:	10 92 b1 02 	sts	0x02B1, r1
    31de:	70 93 39 02 	sts	0x0239, r23
    31e2:	70 93 c1 01 	sts	0x01C1, r23
    31e6:	10 92 2a 03 	sts	0x032A, r1
    31ea:	10 92 b2 02 	sts	0x02B2, r1
    31ee:	70 93 3a 02 	sts	0x023A, r23
    31f2:	70 93 c2 01 	sts	0x01C2, r23
    31f6:	10 92 2b 03 	sts	0x032B, r1
    31fa:	10 92 b3 02 	sts	0x02B3, r1
    31fe:	20 93 3b 02 	sts	0x023B, r18
    3202:	20 93 c3 01 	sts	0x01C3, r18
    3206:	10 92 2c 03 	sts	0x032C, r1
    320a:	10 92 b4 02 	sts	0x02B4, r1
    320e:	20 93 3c 02 	sts	0x023C, r18
    3212:	20 93 c4 01 	sts	0x01C4, r18
    3216:	10 92 2d 03 	sts	0x032D, r1
    321a:	10 92 b5 02 	sts	0x02B5, r1
    321e:	30 93 3d 02 	sts	0x023D, r19
    3222:	30 93 c5 01 	sts	0x01C5, r19
    3226:	10 92 2e 03 	sts	0x032E, r1
    322a:	10 92 b6 02 	sts	0x02B6, r1
    322e:	30 93 3e 02 	sts	0x023E, r19
    3232:	30 93 c6 01 	sts	0x01C6, r19
    3236:	10 92 2f 03 	sts	0x032F, r1
    323a:	10 92 b7 02 	sts	0x02B7, r1
    323e:	30 93 3f 02 	sts	0x023F, r19
    3242:	30 93 c7 01 	sts	0x01C7, r19
    3246:	83 e0       	ldi	r24, 0x03	; 3
    3248:	80 93 30 03 	sts	0x0330, r24
    324c:	50 93 b8 02 	sts	0x02B8, r21
    3250:	36 ec       	ldi	r19, 0xC6	; 198
    3252:	30 93 40 02 	sts	0x0240, r19
    3256:	30 93 c8 01 	sts	0x01C8, r19
    325a:	80 93 31 03 	sts	0x0331, r24
    325e:	50 93 b9 02 	sts	0x02B9, r21
    3262:	32 e8       	ldi	r19, 0x82	; 130
    3264:	30 93 41 02 	sts	0x0241, r19
    3268:	30 93 c9 01 	sts	0x01C9, r19
    326c:	80 93 32 03 	sts	0x0332, r24
    3270:	50 93 ba 02 	sts	0x02BA, r21
    3274:	50 93 42 02 	sts	0x0242, r21
    3278:	50 93 ca 01 	sts	0x01CA, r21
    327c:	80 93 33 03 	sts	0x0333, r24
    3280:	50 93 bb 02 	sts	0x02BB, r21
    3284:	50 93 43 02 	sts	0x0243, r21
    3288:	50 93 cb 01 	sts	0x01CB, r21
    328c:	80 93 34 03 	sts	0x0334, r24
    3290:	50 93 bc 02 	sts	0x02BC, r21
    3294:	50 93 44 02 	sts	0x0244, r21
    3298:	50 93 cc 01 	sts	0x01CC, r21
    329c:	80 93 35 03 	sts	0x0335, r24
    32a0:	50 93 bd 02 	sts	0x02BD, r21
    32a4:	50 93 45 02 	sts	0x0245, r21
    32a8:	50 93 cd 01 	sts	0x01CD, r21
    32ac:	80 93 36 03 	sts	0x0336, r24
    32b0:	50 93 be 02 	sts	0x02BE, r21
    32b4:	50 93 46 02 	sts	0x0246, r21
    32b8:	50 93 ce 01 	sts	0x01CE, r21
    32bc:	80 93 37 03 	sts	0x0337, r24
    32c0:	50 93 bf 02 	sts	0x02BF, r21
    32c4:	50 93 47 02 	sts	0x0247, r21
    32c8:	50 93 cf 01 	sts	0x01CF, r21
    32cc:	80 93 38 03 	sts	0x0338, r24
    32d0:	50 93 c0 02 	sts	0x02C0, r21
    32d4:	50 93 48 02 	sts	0x0248, r21
    32d8:	50 93 d0 01 	sts	0x01D0, r21
    32dc:	8c e3       	ldi	r24, 0x3C	; 60
    32de:	80 93 39 03 	sts	0x0339, r24
    32e2:	80 93 c1 02 	sts	0x02C1, r24
    32e6:	83 ec       	ldi	r24, 0xC3	; 195
    32e8:	80 93 49 02 	sts	0x0249, r24
    32ec:	8f ef       	ldi	r24, 0xFF	; 255
    32ee:	80 93 d1 01 	sts	0x01D1, r24
    32f2:	10 92 3a 03 	sts	0x033A, r1
    32f6:	10 92 c2 02 	sts	0x02C2, r1
    32fa:	00 93 4a 02 	sts	0x024A, r16
    32fe:	00 93 d2 01 	sts	0x01D2, r16
    3302:	10 92 3b 03 	sts	0x033B, r1
    3306:	10 92 c3 02 	sts	0x02C3, r1
    330a:	20 93 4b 02 	sts	0x024B, r18
    330e:	20 93 d3 01 	sts	0x01D3, r18
    3312:	10 92 3c 03 	sts	0x033C, r1
    3316:	10 92 c4 02 	sts	0x02C4, r1
    331a:	20 93 4c 02 	sts	0x024C, r18
    331e:	20 93 d4 01 	sts	0x01D4, r18
    3322:	10 92 3d 03 	sts	0x033D, r1
    3326:	10 92 c5 02 	sts	0x02C5, r1
    332a:	20 93 4d 02 	sts	0x024D, r18
    332e:	20 93 d5 01 	sts	0x01D5, r18
    3332:	10 92 3e 03 	sts	0x033E, r1
    3336:	10 92 c6 02 	sts	0x02C6, r1
    333a:	20 93 4e 02 	sts	0x024E, r18
    333e:	20 93 d6 01 	sts	0x01D6, r18
    3342:	10 92 3f 03 	sts	0x033F, r1
    3346:	10 92 c7 02 	sts	0x02C7, r1
    334a:	20 93 4f 02 	sts	0x024F, r18
    334e:	20 93 d7 01 	sts	0x01D7, r18
    3352:	10 92 40 03 	sts	0x0340, r1
    3356:	10 92 c8 02 	sts	0x02C8, r1
    335a:	20 93 50 02 	sts	0x0250, r18
    335e:	20 93 d8 01 	sts	0x01D8, r18
    3362:	10 92 41 03 	sts	0x0341, r1
    3366:	10 92 c9 02 	sts	0x02C9, r1
    336a:	20 93 51 02 	sts	0x0251, r18
    336e:	20 93 d9 01 	sts	0x01D9, r18
    3372:	10 92 42 03 	sts	0x0342, r1
    3376:	10 92 ca 02 	sts	0x02CA, r1
    337a:	10 93 52 02 	sts	0x0252, r17
    337e:	20 93 da 01 	sts	0x01DA, r18
    3382:	10 92 43 03 	sts	0x0343, r1
    3386:	10 92 cb 02 	sts	0x02CB, r1
    338a:	90 93 53 02 	sts	0x0253, r25
    338e:	20 93 db 01 	sts	0x01DB, r18
    3392:	10 92 44 03 	sts	0x0344, r1
    3396:	10 92 cc 02 	sts	0x02CC, r1
    339a:	10 93 54 02 	sts	0x0254, r17
    339e:	20 93 dc 01 	sts	0x01DC, r18
    33a2:	10 92 45 03 	sts	0x0345, r1
    33a6:	10 92 cd 02 	sts	0x02CD, r1
    33aa:	20 93 55 02 	sts	0x0255, r18
    33ae:	20 93 dd 01 	sts	0x01DD, r18
    33b2:	10 92 46 03 	sts	0x0346, r1
    33b6:	10 92 ce 02 	sts	0x02CE, r1
    33ba:	20 93 56 02 	sts	0x0256, r18
    33be:	20 93 de 01 	sts	0x01DE, r18
    33c2:	10 92 47 03 	sts	0x0347, r1
    33c6:	10 92 cf 02 	sts	0x02CF, r1
    33ca:	80 93 57 02 	sts	0x0257, r24
    33ce:	80 93 df 01 	sts	0x01DF, r24
    33d2:	df 91       	pop	r29
    33d4:	cf 91       	pop	r28
    33d6:	1f 91       	pop	r17
    33d8:	0f 91       	pop	r16
    33da:	ff 90       	pop	r15
    33dc:	ef 90       	pop	r14
    33de:	df 90       	pop	r13
    33e0:	cf 90       	pop	r12
    33e2:	08 95       	ret

000033e4 <loadLevel>:
    33e4:	0f 93       	push	r16
    33e6:	1f 93       	push	r17
    33e8:	cf 93       	push	r28
    33ea:	df 93       	push	r29
    33ec:	0f 92       	push	r0
    33ee:	cd b7       	in	r28, 0x3d	; 61
    33f0:	de b7       	in	r29, 0x3e	; 62
    33f2:	90 91 67 01 	lds	r25, 0x0167
    33f6:	89 17       	cp	r24, r25
    33f8:	51 f0       	breq	.+20     	; 0x340e <loadLevel+0x2a>
    33fa:	82 30       	cpi	r24, 0x02	; 2
    33fc:	09 f4       	brne	.+2      	; 0x3400 <loadLevel+0x1c>
    33fe:	77 c0       	rjmp	.+238    	; 0x34ee <loadLevel+0x10a>
    3400:	83 30       	cpi	r24, 0x03	; 3
    3402:	18 f1       	brcs	.+70     	; 0x344a <loadLevel+0x66>
    3404:	83 30       	cpi	r24, 0x03	; 3
    3406:	09 f4       	brne	.+2      	; 0x340a <loadLevel+0x26>
    3408:	8b c0       	rjmp	.+278    	; 0x3520 <loadLevel+0x13c>
    340a:	84 30       	cpi	r24, 0x04	; 4
    340c:	d9 f1       	breq	.+118    	; 0x3484 <loadLevel+0xa0>
    340e:	80 91 43 03 	lds	r24, 0x0343
    3412:	86 60       	ori	r24, 0x06	; 6
    3414:	80 93 43 03 	sts	0x0343, r24
    3418:	80 91 53 02 	lds	r24, 0x0253
    341c:	86 60       	ori	r24, 0x06	; 6
    341e:	80 93 53 02 	sts	0x0253, r24
    3422:	80 91 cb 02 	lds	r24, 0x02CB
    3426:	86 60       	ori	r24, 0x06	; 6
    3428:	80 93 cb 02 	sts	0x02CB, r24
    342c:	8f ef       	ldi	r24, 0xFF	; 255
    342e:	80 93 f4 00 	sts	0x00F4, r24
    3432:	81 e0       	ldi	r24, 0x01	; 1
    3434:	80 93 7e 04 	sts	0x047E, r24
    3438:	83 e0       	ldi	r24, 0x03	; 3
    343a:	80 93 7f 04 	sts	0x047F, r24
    343e:	0f 90       	pop	r0
    3440:	df 91       	pop	r29
    3442:	cf 91       	pop	r28
    3444:	1f 91       	pop	r17
    3446:	0f 91       	pop	r16
    3448:	08 95       	ret
    344a:	81 30       	cpi	r24, 0x01	; 1
    344c:	01 f7       	brne	.-64     	; 0x340e <loadLevel+0x2a>
    344e:	89 83       	std	Y+1, r24	; 0x01
    3450:	0e 94 d5 09 	call	0x13aa	; 0x13aa <loadLevel1>
    3454:	20 ec       	ldi	r18, 0xC0	; 192
    3456:	31 e0       	ldi	r19, 0x01	; 1
    3458:	30 93 77 04 	sts	0x0477, r19
    345c:	20 93 76 04 	sts	0x0476, r18
    3460:	2b e2       	ldi	r18, 0x2B	; 43
    3462:	31 e0       	ldi	r19, 0x01	; 1
    3464:	30 93 79 04 	sts	0x0479, r19
    3468:	20 93 78 04 	sts	0x0478, r18
    346c:	10 92 7b 04 	sts	0x047B, r1
    3470:	10 92 7a 04 	sts	0x047A, r1
    3474:	10 92 5c 04 	sts	0x045C, r1
    3478:	89 81       	ldd	r24, Y+1	; 0x01
    347a:	80 93 5d 04 	sts	0x045D, r24
    347e:	80 93 5e 04 	sts	0x045E, r24
    3482:	c5 cf       	rjmp	.-118    	; 0x340e <loadLevel+0x2a>
    3484:	0e 94 01 16 	call	0x2c02	; 0x2c02 <loadLevel4>
    3488:	80 e0       	ldi	r24, 0x00	; 0
    348a:	91 e0       	ldi	r25, 0x01	; 1
    348c:	90 93 77 04 	sts	0x0477, r25
    3490:	80 93 76 04 	sts	0x0476, r24
    3494:	80 e6       	ldi	r24, 0x60	; 96
    3496:	90 e0       	ldi	r25, 0x00	; 0
    3498:	90 93 79 04 	sts	0x0479, r25
    349c:	80 93 78 04 	sts	0x0478, r24
    34a0:	10 92 7b 04 	sts	0x047B, r1
    34a4:	10 92 7a 04 	sts	0x047A, r1
    34a8:	81 e0       	ldi	r24, 0x01	; 1
    34aa:	80 93 5c 04 	sts	0x045C, r24
    34ae:	80 93 5d 04 	sts	0x045D, r24
    34b2:	80 93 5e 04 	sts	0x045E, r24
    34b6:	60 ee       	ldi	r22, 0xE0	; 224
    34b8:	71 e0       	ldi	r23, 0x01	; 1
    34ba:	a8 e5       	ldi	r26, 0x58	; 88
    34bc:	b2 e0       	ldi	r27, 0x02	; 2
    34be:	00 ed       	ldi	r16, 0xD0	; 208
    34c0:	12 e0       	ldi	r17, 0x02	; 2
    34c2:	90 e0       	ldi	r25, 0x00	; 0
    34c4:	3c 91       	ld	r19, X
    34c6:	f8 01       	movw	r30, r16
    34c8:	20 81       	ld	r18, Z
    34ca:	82 2f       	mov	r24, r18
    34cc:	83 23       	and	r24, r19
    34ce:	80 95       	com	r24
    34d0:	fb 01       	movw	r30, r22
    34d2:	40 81       	ld	r20, Z
    34d4:	84 23       	and	r24, r20
    34d6:	81 93       	st	Z+, r24
    34d8:	bf 01       	movw	r22, r30
    34da:	38 2b       	or	r19, r24
    34dc:	3d 93       	st	X+, r19
    34de:	82 2b       	or	r24, r18
    34e0:	f8 01       	movw	r30, r16
    34e2:	81 93       	st	Z+, r24
    34e4:	8f 01       	movw	r16, r30
    34e6:	9f 5f       	subi	r25, 0xFF	; 255
    34e8:	98 37       	cpi	r25, 0x78	; 120
    34ea:	61 f7       	brne	.-40     	; 0x34c4 <loadLevel+0xe0>
    34ec:	90 cf       	rjmp	.-224    	; 0x340e <loadLevel+0x2a>
    34ee:	0e 94 ea 0d 	call	0x1bd4	; 0x1bd4 <loadLevel2>
    34f2:	88 e8       	ldi	r24, 0x88	; 136
    34f4:	90 e0       	ldi	r25, 0x00	; 0
    34f6:	90 93 77 04 	sts	0x0477, r25
    34fa:	80 93 76 04 	sts	0x0476, r24
    34fe:	8c e3       	ldi	r24, 0x3C	; 60
    3500:	90 e0       	ldi	r25, 0x00	; 0
    3502:	90 93 79 04 	sts	0x0479, r25
    3506:	80 93 78 04 	sts	0x0478, r24
    350a:	10 92 7b 04 	sts	0x047B, r1
    350e:	10 92 7a 04 	sts	0x047A, r1
    3512:	10 92 5c 04 	sts	0x045C, r1
    3516:	10 92 5d 04 	sts	0x045D, r1
    351a:	10 92 5e 04 	sts	0x045E, r1
    351e:	77 cf       	rjmp	.-274    	; 0x340e <loadLevel+0x2a>
    3520:	0e 94 e4 11 	call	0x23c8	; 0x23c8 <loadLevel3>
    3524:	80 ec       	ldi	r24, 0xC0	; 192
    3526:	91 e0       	ldi	r25, 0x01	; 1
    3528:	90 93 77 04 	sts	0x0477, r25
    352c:	80 93 76 04 	sts	0x0476, r24
    3530:	8b e2       	ldi	r24, 0x2B	; 43
    3532:	91 e0       	ldi	r25, 0x01	; 1
    3534:	90 93 79 04 	sts	0x0479, r25
    3538:	80 93 78 04 	sts	0x0478, r24
    353c:	10 92 7b 04 	sts	0x047B, r1
    3540:	10 92 7a 04 	sts	0x047A, r1
    3544:	10 92 5c 04 	sts	0x045C, r1
    3548:	81 e0       	ldi	r24, 0x01	; 1
    354a:	80 93 5d 04 	sts	0x045D, r24
    354e:	80 93 5e 04 	sts	0x045E, r24
    3552:	5d cf       	rjmp	.-326    	; 0x340e <loadLevel+0x2a>

00003554 <AdvanceLevel>:
    3554:	2f 92       	push	r2
    3556:	3f 92       	push	r3
    3558:	4f 92       	push	r4
    355a:	5f 92       	push	r5
    355c:	6f 92       	push	r6
    355e:	7f 92       	push	r7
    3560:	8f 92       	push	r8
    3562:	9f 92       	push	r9
    3564:	af 92       	push	r10
    3566:	bf 92       	push	r11
    3568:	cf 92       	push	r12
    356a:	df 92       	push	r13
    356c:	ef 92       	push	r14
    356e:	ff 92       	push	r15
    3570:	0f 93       	push	r16
    3572:	1f 93       	push	r17
    3574:	cf 93       	push	r28
    3576:	df 93       	push	r29
    3578:	cd b7       	in	r28, 0x3d	; 61
    357a:	de b7       	in	r29, 0x3e	; 62
    357c:	ad 97       	sbiw	r28, 0x2d	; 45
    357e:	0f b6       	in	r0, 0x3f	; 63
    3580:	f8 94       	cli
    3582:	de bf       	out	0x3e, r29	; 62
    3584:	0f be       	out	0x3f, r0	; 63
    3586:	cd bf       	out	0x3d, r28	; 61
    3588:	80 91 f4 00 	lds	r24, 0x00F4
    358c:	80 37       	cpi	r24, 0x70	; 112
    358e:	09 f4       	brne	.+2      	; 0x3592 <AdvanceLevel+0x3e>
    3590:	d1 c2       	rjmp	.+1442   	; 0x3b34 <AdvanceLevel+0x5e0>
    3592:	8f 5f       	subi	r24, 0xFF	; 255
    3594:	80 93 f4 00 	sts	0x00F4, r24
    3598:	88 23       	and	r24, r24
    359a:	09 f0       	breq	.+2      	; 0x359e <AdvanceLevel+0x4a>
    359c:	e4 c2       	rjmp	.+1480   	; 0x3b66 <AdvanceLevel+0x612>
    359e:	a0 90 d0 02 	lds	r10, 0x02D0
    35a2:	bb 24       	eor	r11, r11
    35a4:	80 90 58 02 	lds	r8, 0x0258
    35a8:	99 24       	eor	r9, r9
    35aa:	60 90 e0 01 	lds	r6, 0x01E0
    35ae:	77 24       	eor	r7, r7
    35b0:	40 90 d1 02 	lds	r4, 0x02D1
    35b4:	55 24       	eor	r5, r5
    35b6:	20 90 59 02 	lds	r2, 0x0259
    35ba:	33 24       	eor	r3, r3
    35bc:	80 91 e1 01 	lds	r24, 0x01E1
    35c0:	28 2f       	mov	r18, r24
    35c2:	30 e0       	ldi	r19, 0x00	; 0
    35c4:	3a 8f       	std	Y+26, r19	; 0x1a
    35c6:	29 8f       	std	Y+25, r18	; 0x19
    35c8:	80 91 d2 02 	lds	r24, 0x02D2
    35cc:	e8 2f       	mov	r30, r24
    35ce:	f0 e0       	ldi	r31, 0x00	; 0
    35d0:	fe a3       	lds	r31, 0x5e
    35d2:	ed a3       	lds	r30, 0x5d
    35d4:	80 91 5a 02 	lds	r24, 0x025A
    35d8:	28 2f       	mov	r18, r24
    35da:	30 e0       	ldi	r19, 0x00	; 0
    35dc:	38 a7       	lds	r19, 0x78
    35de:	2f a3       	lds	r18, 0x5f
    35e0:	80 91 e2 01 	lds	r24, 0x01E2
    35e4:	e8 2f       	mov	r30, r24
    35e6:	f0 e0       	ldi	r31, 0x00	; 0
    35e8:	fc a3       	lds	r31, 0x5c
    35ea:	eb a3       	lds	r30, 0x5b
    35ec:	80 91 d3 02 	lds	r24, 0x02D3
    35f0:	28 2f       	mov	r18, r24
    35f2:	30 e0       	ldi	r19, 0x00	; 0
    35f4:	3c 8f       	std	Y+28, r19	; 0x1c
    35f6:	2b 8f       	std	Y+27, r18	; 0x1b
    35f8:	80 91 5b 02 	lds	r24, 0x025B
    35fc:	e8 2f       	mov	r30, r24
    35fe:	f0 e0       	ldi	r31, 0x00	; 0
    3600:	fa a3       	lds	r31, 0x5a
    3602:	e9 a3       	lds	r30, 0x59
    3604:	80 91 e3 01 	lds	r24, 0x01E3
    3608:	28 2f       	mov	r18, r24
    360a:	30 e0       	ldi	r19, 0x00	; 0
    360c:	3e 8f       	std	Y+30, r19	; 0x1e
    360e:	2d 8f       	std	Y+29, r18	; 0x1d
    3610:	80 91 d4 02 	lds	r24, 0x02D4
    3614:	e8 2f       	mov	r30, r24
    3616:	f0 e0       	ldi	r31, 0x00	; 0
    3618:	f8 a3       	lds	r31, 0x58
    361a:	ef 8f       	std	Y+31, r30	; 0x1f
    361c:	80 91 5c 02 	lds	r24, 0x025C
    3620:	28 2f       	mov	r18, r24
    3622:	30 e0       	ldi	r19, 0x00	; 0
    3624:	3c 83       	std	Y+4, r19	; 0x04
    3626:	2b 83       	std	Y+3, r18	; 0x03
    3628:	80 91 e4 01 	lds	r24, 0x01E4
    362c:	e8 2f       	mov	r30, r24
    362e:	f0 e0       	ldi	r31, 0x00	; 0
    3630:	fe 83       	std	Y+6, r31	; 0x06
    3632:	ed 83       	std	Y+5, r30	; 0x05
    3634:	80 91 d5 02 	lds	r24, 0x02D5
    3638:	28 2f       	mov	r18, r24
    363a:	30 e0       	ldi	r19, 0x00	; 0
    363c:	3e 8b       	std	Y+22, r19	; 0x16
    363e:	2d 8b       	std	Y+21, r18	; 0x15
    3640:	80 91 5d 02 	lds	r24, 0x025D
    3644:	e8 2f       	mov	r30, r24
    3646:	f0 e0       	ldi	r31, 0x00	; 0
    3648:	f8 8f       	std	Y+24, r31	; 0x18
    364a:	ef 8b       	std	Y+23, r30	; 0x17
    364c:	80 91 e5 01 	lds	r24, 0x01E5
    3650:	28 2f       	mov	r18, r24
    3652:	30 e0       	ldi	r19, 0x00	; 0
    3654:	3c 8b       	std	Y+20, r19	; 0x14
    3656:	2b 8b       	std	Y+19, r18	; 0x13
    3658:	80 91 d6 02 	lds	r24, 0x02D6
    365c:	e8 2f       	mov	r30, r24
    365e:	f0 e0       	ldi	r31, 0x00	; 0
    3660:	f8 8b       	std	Y+16, r31	; 0x10
    3662:	ef 87       	std	Y+15, r30	; 0x0f
    3664:	80 91 5e 02 	lds	r24, 0x025E
    3668:	28 2f       	mov	r18, r24
    366a:	30 e0       	ldi	r19, 0x00	; 0
    366c:	3a 8b       	std	Y+18, r19	; 0x12
    366e:	29 8b       	std	Y+17, r18	; 0x11
    3670:	80 91 e6 01 	lds	r24, 0x01E6
    3674:	e8 2f       	mov	r30, r24
    3676:	f0 e0       	ldi	r31, 0x00	; 0
    3678:	fc 87       	std	Y+12, r31	; 0x0c
    367a:	eb 87       	std	Y+11, r30	; 0x0b
    367c:	80 91 d7 02 	lds	r24, 0x02D7
    3680:	28 2f       	mov	r18, r24
    3682:	30 e0       	ldi	r19, 0x00	; 0
    3684:	3e 87       	std	Y+14, r19	; 0x0e
    3686:	2d 87       	std	Y+13, r18	; 0x0d
    3688:	80 91 5f 02 	lds	r24, 0x025F
    368c:	e8 2f       	mov	r30, r24
    368e:	f0 e0       	ldi	r31, 0x00	; 0
    3690:	fa 87       	std	Y+10, r31	; 0x0a
    3692:	e9 87       	std	Y+9, r30	; 0x09
    3694:	80 91 e7 01 	lds	r24, 0x01E7
    3698:	28 2f       	mov	r18, r24
    369a:	30 e0       	ldi	r19, 0x00	; 0
    369c:	38 87       	std	Y+8, r19	; 0x08
    369e:	2f 83       	std	Y+7, r18	; 0x07
    36a0:	aa e5       	ldi	r26, 0x5A	; 90
    36a2:	b3 e0       	ldi	r27, 0x03	; 3
    36a4:	cd 01       	movw	r24, r26
    36a6:	45 96       	adiw	r24, 0x15	; 21
    36a8:	bd 01       	movw	r22, r26
    36aa:	6a 5e       	subi	r22, 0xEA	; 234
    36ac:	7f 4f       	sbci	r23, 0xFF	; 255
    36ae:	8d 01       	movw	r16, r26
    36b0:	0e 5e       	subi	r16, 0xEE	; 238
    36b2:	1f 4f       	sbci	r17, 0xFF	; 255
    36b4:	43 e1       	ldi	r20, 0x13	; 19
    36b6:	e4 2e       	mov	r14, r20
    36b8:	f1 2c       	mov	r15, r1
    36ba:	ea 0e       	add	r14, r26
    36bc:	fb 1e       	adc	r15, r27
    36be:	cc 24       	eor	r12, r12
    36c0:	dd 24       	eor	r13, r13
    36c2:	9a 83       	std	Y+2, r25	; 0x02
    36c4:	89 83       	std	Y+1, r24	; 0x01
    36c6:	40 e8       	ldi	r20, 0x80	; 128
    36c8:	50 e0       	ldi	r21, 0x00	; 0
    36ca:	0c 2c       	mov	r0, r12
    36cc:	02 c0       	rjmp	.+4      	; 0x36d2 <AdvanceLevel+0x17e>
    36ce:	55 95       	asr	r21
    36d0:	47 95       	ror	r20
    36d2:	0a 94       	dec	r0
    36d4:	e2 f7       	brpl	.-8      	; 0x36ce <AdvanceLevel+0x17a>
    36d6:	ca 01       	movw	r24, r20
    36d8:	8a 21       	and	r24, r10
    36da:	9b 21       	and	r25, r11
    36dc:	00 97       	sbiw	r24, 0x00	; 0
    36de:	09 f4       	brne	.+2      	; 0x36e2 <AdvanceLevel+0x18e>
    36e0:	ef c5       	rjmp	.+3038   	; 0x42c0 <AdvanceLevel+0xd6c>
    36e2:	88 e0       	ldi	r24, 0x08	; 8
    36e4:	8c 93       	st	X, r24
    36e6:	ca 01       	movw	r24, r20
    36e8:	88 21       	and	r24, r8
    36ea:	99 21       	and	r25, r9
    36ec:	00 97       	sbiw	r24, 0x00	; 0
    36ee:	09 f4       	brne	.+2      	; 0x36f2 <AdvanceLevel+0x19e>
    36f0:	ef c5       	rjmp	.+3038   	; 0x42d0 <AdvanceLevel+0xd7c>
    36f2:	88 e0       	ldi	r24, 0x08	; 8
    36f4:	11 96       	adiw	r26, 0x01	; 1
    36f6:	8c 93       	st	X, r24
    36f8:	11 97       	sbiw	r26, 0x01	; 1
    36fa:	ca 01       	movw	r24, r20
    36fc:	86 21       	and	r24, r6
    36fe:	97 21       	and	r25, r7
    3700:	00 97       	sbiw	r24, 0x00	; 0
    3702:	09 f4       	brne	.+2      	; 0x3706 <AdvanceLevel+0x1b2>
    3704:	ef c5       	rjmp	.+3038   	; 0x42e4 <AdvanceLevel+0xd90>
    3706:	98 e0       	ldi	r25, 0x08	; 8
    3708:	12 96       	adiw	r26, 0x02	; 2
    370a:	9c 93       	st	X, r25
    370c:	12 97       	sbiw	r26, 0x02	; 2
    370e:	11 96       	adiw	r26, 0x01	; 1
    3710:	8c 91       	ld	r24, X
    3712:	11 97       	sbiw	r26, 0x01	; 1
    3714:	2c 91       	ld	r18, X
    3716:	82 2b       	or	r24, r18
    3718:	89 2b       	or	r24, r25
    371a:	d9 f4       	brne	.+54     	; 0x3752 <AdvanceLevel+0x1fe>
    371c:	2c e5       	ldi	r18, 0x5C	; 92
    371e:	34 e0       	ldi	r19, 0x04	; 4
    3720:	83 e0       	ldi	r24, 0x03	; 3
    3722:	8d a7       	lds	r24, 0x7d
    3724:	89 81       	ldd	r24, Y+1	; 0x01
    3726:	9a 81       	ldd	r25, Y+2	; 0x02
    3728:	9a a7       	lds	r25, 0x7a
    372a:	89 a7       	lds	r24, 0x79
    372c:	bc a7       	lds	r27, 0x7c
    372e:	ab a7       	lds	r26, 0x7b
    3730:	f9 01       	movw	r30, r18
    3732:	9d 01       	movw	r18, r26
    3734:	83 e0       	ldi	r24, 0x03	; 3
    3736:	df 01       	movw	r26, r30
    3738:	eb a5       	lds	r30, 0x6b
    373a:	fc a5       	lds	r31, 0x6c
    373c:	0d 90       	ld	r0, X+
    373e:	01 92       	st	Z+, r0
    3740:	fc a7       	lds	r31, 0x7c
    3742:	eb a7       	lds	r30, 0x7b
    3744:	81 50       	subi	r24, 0x01	; 1
    3746:	d1 f7       	brne	.-12     	; 0x373c <AdvanceLevel+0x1e8>
    3748:	d9 01       	movw	r26, r18
    374a:	29 a5       	lds	r18, 0x69
    374c:	3a a5       	lds	r19, 0x6a
    374e:	3a 83       	std	Y+2, r19	; 0x02
    3750:	29 83       	std	Y+1, r18	; 0x01
    3752:	ca 01       	movw	r24, r20
    3754:	84 21       	and	r24, r4
    3756:	95 21       	and	r25, r5
    3758:	00 97       	sbiw	r24, 0x00	; 0
    375a:	09 f4       	brne	.+2      	; 0x375e <AdvanceLevel+0x20a>
    375c:	c5 c5       	rjmp	.+2954   	; 0x42e8 <AdvanceLevel+0xd94>
    375e:	88 e0       	ldi	r24, 0x08	; 8
    3760:	13 96       	adiw	r26, 0x03	; 3
    3762:	8c 93       	st	X, r24
    3764:	13 97       	sbiw	r26, 0x03	; 3
    3766:	ca 01       	movw	r24, r20
    3768:	82 21       	and	r24, r2
    376a:	93 21       	and	r25, r3
    376c:	00 97       	sbiw	r24, 0x00	; 0
    376e:	09 f4       	brne	.+2      	; 0x3772 <AdvanceLevel+0x21e>
    3770:	c5 c5       	rjmp	.+2954   	; 0x42fc <AdvanceLevel+0xda8>
    3772:	88 e0       	ldi	r24, 0x08	; 8
    3774:	14 96       	adiw	r26, 0x04	; 4
    3776:	8c 93       	st	X, r24
    3778:	14 97       	sbiw	r26, 0x04	; 4
    377a:	89 8d       	ldd	r24, Y+25	; 0x19
    377c:	9a 8d       	ldd	r25, Y+26	; 0x1a
    377e:	84 23       	and	r24, r20
    3780:	95 23       	and	r25, r21
    3782:	00 97       	sbiw	r24, 0x00	; 0
    3784:	09 f4       	brne	.+2      	; 0x3788 <AdvanceLevel+0x234>
    3786:	e2 c5       	rjmp	.+3012   	; 0x434c <AdvanceLevel+0xdf8>
    3788:	98 e0       	ldi	r25, 0x08	; 8
    378a:	15 96       	adiw	r26, 0x05	; 5
    378c:	9c 93       	st	X, r25
    378e:	15 97       	sbiw	r26, 0x05	; 5
    3790:	14 96       	adiw	r26, 0x04	; 4
    3792:	8c 91       	ld	r24, X
    3794:	14 97       	sbiw	r26, 0x04	; 4
    3796:	13 96       	adiw	r26, 0x03	; 3
    3798:	2c 91       	ld	r18, X
    379a:	13 97       	sbiw	r26, 0x03	; 3
    379c:	82 2b       	or	r24, r18
    379e:	89 2b       	or	r24, r25
    37a0:	e9 f4       	brne	.+58     	; 0x37dc <AdvanceLevel+0x288>
    37a2:	fd 01       	movw	r30, r26
    37a4:	33 96       	adiw	r30, 0x03	; 3
    37a6:	2c e5       	ldi	r18, 0x5C	; 92
    37a8:	34 e0       	ldi	r19, 0x04	; 4
    37aa:	83 e0       	ldi	r24, 0x03	; 3
    37ac:	8d a7       	lds	r24, 0x7d
    37ae:	89 81       	ldd	r24, Y+1	; 0x01
    37b0:	9a 81       	ldd	r25, Y+2	; 0x02
    37b2:	9a a7       	lds	r25, 0x7a
    37b4:	89 a7       	lds	r24, 0x79
    37b6:	fc a7       	lds	r31, 0x7c
    37b8:	eb a7       	lds	r30, 0x7b
    37ba:	f9 01       	movw	r30, r18
    37bc:	9d 01       	movw	r18, r26
    37be:	83 e0       	ldi	r24, 0x03	; 3
    37c0:	df 01       	movw	r26, r30
    37c2:	eb a5       	lds	r30, 0x6b
    37c4:	fc a5       	lds	r31, 0x6c
    37c6:	0d 90       	ld	r0, X+
    37c8:	01 92       	st	Z+, r0
    37ca:	fc a7       	lds	r31, 0x7c
    37cc:	eb a7       	lds	r30, 0x7b
    37ce:	81 50       	subi	r24, 0x01	; 1
    37d0:	d1 f7       	brne	.-12     	; 0x37c6 <AdvanceLevel+0x272>
    37d2:	d9 01       	movw	r26, r18
    37d4:	29 a5       	lds	r18, 0x69
    37d6:	3a a5       	lds	r19, 0x6a
    37d8:	3a 83       	std	Y+2, r19	; 0x02
    37da:	29 83       	std	Y+1, r18	; 0x01
    37dc:	8d a1       	lds	r24, 0x4d
    37de:	9e a1       	lds	r25, 0x4e
    37e0:	84 23       	and	r24, r20
    37e2:	95 23       	and	r25, r21
    37e4:	00 97       	sbiw	r24, 0x00	; 0
    37e6:	09 f4       	brne	.+2      	; 0x37ea <AdvanceLevel+0x296>
    37e8:	af c5       	rjmp	.+2910   	; 0x4348 <AdvanceLevel+0xdf4>
    37ea:	88 e0       	ldi	r24, 0x08	; 8
    37ec:	16 96       	adiw	r26, 0x06	; 6
    37ee:	8c 93       	st	X, r24
    37f0:	16 97       	sbiw	r26, 0x06	; 6
    37f2:	8f a1       	lds	r24, 0x4f
    37f4:	98 a5       	lds	r25, 0x68
    37f6:	84 23       	and	r24, r20
    37f8:	95 23       	and	r25, r21
    37fa:	00 97       	sbiw	r24, 0x00	; 0
    37fc:	09 f4       	brne	.+2      	; 0x3800 <AdvanceLevel+0x2ac>
    37fe:	a2 c5       	rjmp	.+2884   	; 0x4344 <AdvanceLevel+0xdf0>
    3800:	88 e0       	ldi	r24, 0x08	; 8
    3802:	17 96       	adiw	r26, 0x07	; 7
    3804:	8c 93       	st	X, r24
    3806:	17 97       	sbiw	r26, 0x07	; 7
    3808:	8b a1       	lds	r24, 0x4b
    380a:	9c a1       	lds	r25, 0x4c
    380c:	84 23       	and	r24, r20
    380e:	95 23       	and	r25, r21
    3810:	00 97       	sbiw	r24, 0x00	; 0
    3812:	09 f4       	brne	.+2      	; 0x3816 <AdvanceLevel+0x2c2>
    3814:	95 c5       	rjmp	.+2858   	; 0x4340 <AdvanceLevel+0xdec>
    3816:	98 e0       	ldi	r25, 0x08	; 8
    3818:	18 96       	adiw	r26, 0x08	; 8
    381a:	9c 93       	st	X, r25
    381c:	18 97       	sbiw	r26, 0x08	; 8
    381e:	17 96       	adiw	r26, 0x07	; 7
    3820:	8c 91       	ld	r24, X
    3822:	17 97       	sbiw	r26, 0x07	; 7
    3824:	16 96       	adiw	r26, 0x06	; 6
    3826:	2c 91       	ld	r18, X
    3828:	16 97       	sbiw	r26, 0x06	; 6
    382a:	82 2b       	or	r24, r18
    382c:	89 2b       	or	r24, r25
    382e:	e9 f4       	brne	.+58     	; 0x386a <AdvanceLevel+0x316>
    3830:	fd 01       	movw	r30, r26
    3832:	36 96       	adiw	r30, 0x06	; 6
    3834:	2c e5       	ldi	r18, 0x5C	; 92
    3836:	34 e0       	ldi	r19, 0x04	; 4
    3838:	83 e0       	ldi	r24, 0x03	; 3
    383a:	8d a7       	lds	r24, 0x7d
    383c:	89 81       	ldd	r24, Y+1	; 0x01
    383e:	9a 81       	ldd	r25, Y+2	; 0x02
    3840:	9a a7       	lds	r25, 0x7a
    3842:	89 a7       	lds	r24, 0x79
    3844:	fc a7       	lds	r31, 0x7c
    3846:	eb a7       	lds	r30, 0x7b
    3848:	f9 01       	movw	r30, r18
    384a:	9d 01       	movw	r18, r26
    384c:	83 e0       	ldi	r24, 0x03	; 3
    384e:	df 01       	movw	r26, r30
    3850:	eb a5       	lds	r30, 0x6b
    3852:	fc a5       	lds	r31, 0x6c
    3854:	0d 90       	ld	r0, X+
    3856:	01 92       	st	Z+, r0
    3858:	fc a7       	lds	r31, 0x7c
    385a:	eb a7       	lds	r30, 0x7b
    385c:	81 50       	subi	r24, 0x01	; 1
    385e:	d1 f7       	brne	.-12     	; 0x3854 <AdvanceLevel+0x300>
    3860:	d9 01       	movw	r26, r18
    3862:	29 a5       	lds	r18, 0x69
    3864:	3a a5       	lds	r19, 0x6a
    3866:	3a 83       	std	Y+2, r19	; 0x02
    3868:	29 83       	std	Y+1, r18	; 0x01
    386a:	8b 8d       	ldd	r24, Y+27	; 0x1b
    386c:	9c 8d       	ldd	r25, Y+28	; 0x1c
    386e:	84 23       	and	r24, r20
    3870:	95 23       	and	r25, r21
    3872:	00 97       	sbiw	r24, 0x00	; 0
    3874:	09 f4       	brne	.+2      	; 0x3878 <AdvanceLevel+0x324>
    3876:	62 c5       	rjmp	.+2756   	; 0x433c <AdvanceLevel+0xde8>
    3878:	88 e0       	ldi	r24, 0x08	; 8
    387a:	19 96       	adiw	r26, 0x09	; 9
    387c:	8c 93       	st	X, r24
    387e:	19 97       	sbiw	r26, 0x09	; 9
    3880:	89 a1       	lds	r24, 0x49
    3882:	9a a1       	lds	r25, 0x4a
    3884:	84 23       	and	r24, r20
    3886:	95 23       	and	r25, r21
    3888:	00 97       	sbiw	r24, 0x00	; 0
    388a:	09 f4       	brne	.+2      	; 0x388e <AdvanceLevel+0x33a>
    388c:	55 c5       	rjmp	.+2730   	; 0x4338 <AdvanceLevel+0xde4>
    388e:	88 e0       	ldi	r24, 0x08	; 8
    3890:	1a 96       	adiw	r26, 0x0a	; 10
    3892:	8c 93       	st	X, r24
    3894:	1a 97       	sbiw	r26, 0x0a	; 10
    3896:	8d 8d       	ldd	r24, Y+29	; 0x1d
    3898:	9e 8d       	ldd	r25, Y+30	; 0x1e
    389a:	84 23       	and	r24, r20
    389c:	95 23       	and	r25, r21
    389e:	00 97       	sbiw	r24, 0x00	; 0
    38a0:	09 f4       	brne	.+2      	; 0x38a4 <AdvanceLevel+0x350>
    38a2:	48 c5       	rjmp	.+2704   	; 0x4334 <AdvanceLevel+0xde0>
    38a4:	98 e0       	ldi	r25, 0x08	; 8
    38a6:	1b 96       	adiw	r26, 0x0b	; 11
    38a8:	9c 93       	st	X, r25
    38aa:	1b 97       	sbiw	r26, 0x0b	; 11
    38ac:	1a 96       	adiw	r26, 0x0a	; 10
    38ae:	8c 91       	ld	r24, X
    38b0:	1a 97       	sbiw	r26, 0x0a	; 10
    38b2:	19 96       	adiw	r26, 0x09	; 9
    38b4:	2c 91       	ld	r18, X
    38b6:	19 97       	sbiw	r26, 0x09	; 9
    38b8:	82 2b       	or	r24, r18
    38ba:	89 2b       	or	r24, r25
    38bc:	e9 f4       	brne	.+58     	; 0x38f8 <AdvanceLevel+0x3a4>
    38be:	fd 01       	movw	r30, r26
    38c0:	39 96       	adiw	r30, 0x09	; 9
    38c2:	2c e5       	ldi	r18, 0x5C	; 92
    38c4:	34 e0       	ldi	r19, 0x04	; 4
    38c6:	83 e0       	ldi	r24, 0x03	; 3
    38c8:	8d a7       	lds	r24, 0x7d
    38ca:	89 81       	ldd	r24, Y+1	; 0x01
    38cc:	9a 81       	ldd	r25, Y+2	; 0x02
    38ce:	9a a7       	lds	r25, 0x7a
    38d0:	89 a7       	lds	r24, 0x79
    38d2:	fc a7       	lds	r31, 0x7c
    38d4:	eb a7       	lds	r30, 0x7b
    38d6:	f9 01       	movw	r30, r18
    38d8:	9d 01       	movw	r18, r26
    38da:	83 e0       	ldi	r24, 0x03	; 3
    38dc:	df 01       	movw	r26, r30
    38de:	eb a5       	lds	r30, 0x6b
    38e0:	fc a5       	lds	r31, 0x6c
    38e2:	0d 90       	ld	r0, X+
    38e4:	01 92       	st	Z+, r0
    38e6:	fc a7       	lds	r31, 0x7c
    38e8:	eb a7       	lds	r30, 0x7b
    38ea:	81 50       	subi	r24, 0x01	; 1
    38ec:	d1 f7       	brne	.-12     	; 0x38e2 <AdvanceLevel+0x38e>
    38ee:	d9 01       	movw	r26, r18
    38f0:	29 a5       	lds	r18, 0x69
    38f2:	3a a5       	lds	r19, 0x6a
    38f4:	3a 83       	std	Y+2, r19	; 0x02
    38f6:	29 83       	std	Y+1, r18	; 0x01
    38f8:	8f 8d       	ldd	r24, Y+31	; 0x1f
    38fa:	98 a1       	lds	r25, 0x48
    38fc:	84 23       	and	r24, r20
    38fe:	95 23       	and	r25, r21
    3900:	00 97       	sbiw	r24, 0x00	; 0
    3902:	09 f4       	brne	.+2      	; 0x3906 <AdvanceLevel+0x3b2>
    3904:	15 c5       	rjmp	.+2602   	; 0x4330 <AdvanceLevel+0xddc>
    3906:	88 e0       	ldi	r24, 0x08	; 8
    3908:	1c 96       	adiw	r26, 0x0c	; 12
    390a:	8c 93       	st	X, r24
    390c:	1c 97       	sbiw	r26, 0x0c	; 12
    390e:	8b 81       	ldd	r24, Y+3	; 0x03
    3910:	9c 81       	ldd	r25, Y+4	; 0x04
    3912:	84 23       	and	r24, r20
    3914:	95 23       	and	r25, r21
    3916:	00 97       	sbiw	r24, 0x00	; 0
    3918:	09 f4       	brne	.+2      	; 0x391c <AdvanceLevel+0x3c8>
    391a:	08 c5       	rjmp	.+2576   	; 0x432c <AdvanceLevel+0xdd8>
    391c:	88 e0       	ldi	r24, 0x08	; 8
    391e:	1d 96       	adiw	r26, 0x0d	; 13
    3920:	8c 93       	st	X, r24
    3922:	1d 97       	sbiw	r26, 0x0d	; 13
    3924:	8d 81       	ldd	r24, Y+5	; 0x05
    3926:	9e 81       	ldd	r25, Y+6	; 0x06
    3928:	84 23       	and	r24, r20
    392a:	95 23       	and	r25, r21
    392c:	00 97       	sbiw	r24, 0x00	; 0
    392e:	09 f4       	brne	.+2      	; 0x3932 <AdvanceLevel+0x3de>
    3930:	fb c4       	rjmp	.+2550   	; 0x4328 <AdvanceLevel+0xdd4>
    3932:	98 e0       	ldi	r25, 0x08	; 8
    3934:	1e 96       	adiw	r26, 0x0e	; 14
    3936:	9c 93       	st	X, r25
    3938:	1e 97       	sbiw	r26, 0x0e	; 14
    393a:	1d 96       	adiw	r26, 0x0d	; 13
    393c:	8c 91       	ld	r24, X
    393e:	1d 97       	sbiw	r26, 0x0d	; 13
    3940:	1c 96       	adiw	r26, 0x0c	; 12
    3942:	2c 91       	ld	r18, X
    3944:	1c 97       	sbiw	r26, 0x0c	; 12
    3946:	82 2b       	or	r24, r18
    3948:	89 2b       	or	r24, r25
    394a:	e9 f4       	brne	.+58     	; 0x3986 <AdvanceLevel+0x432>
    394c:	fd 01       	movw	r30, r26
    394e:	3c 96       	adiw	r30, 0x0c	; 12
    3950:	2c e5       	ldi	r18, 0x5C	; 92
    3952:	34 e0       	ldi	r19, 0x04	; 4
    3954:	83 e0       	ldi	r24, 0x03	; 3
    3956:	8d a7       	lds	r24, 0x7d
    3958:	89 81       	ldd	r24, Y+1	; 0x01
    395a:	9a 81       	ldd	r25, Y+2	; 0x02
    395c:	9a a7       	lds	r25, 0x7a
    395e:	89 a7       	lds	r24, 0x79
    3960:	fc a7       	lds	r31, 0x7c
    3962:	eb a7       	lds	r30, 0x7b
    3964:	f9 01       	movw	r30, r18
    3966:	9d 01       	movw	r18, r26
    3968:	83 e0       	ldi	r24, 0x03	; 3
    396a:	df 01       	movw	r26, r30
    396c:	eb a5       	lds	r30, 0x6b
    396e:	fc a5       	lds	r31, 0x6c
    3970:	0d 90       	ld	r0, X+
    3972:	01 92       	st	Z+, r0
    3974:	fc a7       	lds	r31, 0x7c
    3976:	eb a7       	lds	r30, 0x7b
    3978:	81 50       	subi	r24, 0x01	; 1
    397a:	d1 f7       	brne	.-12     	; 0x3970 <AdvanceLevel+0x41c>
    397c:	d9 01       	movw	r26, r18
    397e:	29 a5       	lds	r18, 0x69
    3980:	3a a5       	lds	r19, 0x6a
    3982:	3a 83       	std	Y+2, r19	; 0x02
    3984:	29 83       	std	Y+1, r18	; 0x01
    3986:	8d 89       	ldd	r24, Y+21	; 0x15
    3988:	9e 89       	ldd	r25, Y+22	; 0x16
    398a:	84 23       	and	r24, r20
    398c:	95 23       	and	r25, r21
    398e:	00 97       	sbiw	r24, 0x00	; 0
    3990:	09 f4       	brne	.+2      	; 0x3994 <AdvanceLevel+0x440>
    3992:	c8 c4       	rjmp	.+2448   	; 0x4324 <AdvanceLevel+0xdd0>
    3994:	88 e0       	ldi	r24, 0x08	; 8
    3996:	1f 96       	adiw	r26, 0x0f	; 15
    3998:	8c 93       	st	X, r24
    399a:	1f 97       	sbiw	r26, 0x0f	; 15
    399c:	8f 89       	ldd	r24, Y+23	; 0x17
    399e:	98 8d       	ldd	r25, Y+24	; 0x18
    39a0:	84 23       	and	r24, r20
    39a2:	95 23       	and	r25, r21
    39a4:	00 97       	sbiw	r24, 0x00	; 0
    39a6:	09 f4       	brne	.+2      	; 0x39aa <AdvanceLevel+0x456>
    39a8:	bb c4       	rjmp	.+2422   	; 0x4320 <AdvanceLevel+0xdcc>
    39aa:	88 e0       	ldi	r24, 0x08	; 8
    39ac:	50 96       	adiw	r26, 0x10	; 16
    39ae:	8c 93       	st	X, r24
    39b0:	50 97       	sbiw	r26, 0x10	; 16
    39b2:	8b 89       	ldd	r24, Y+19	; 0x13
    39b4:	9c 89       	ldd	r25, Y+20	; 0x14
    39b6:	84 23       	and	r24, r20
    39b8:	95 23       	and	r25, r21
    39ba:	00 97       	sbiw	r24, 0x00	; 0
    39bc:	09 f4       	brne	.+2      	; 0x39c0 <AdvanceLevel+0x46c>
    39be:	ae c4       	rjmp	.+2396   	; 0x431c <AdvanceLevel+0xdc8>
    39c0:	98 e0       	ldi	r25, 0x08	; 8
    39c2:	51 96       	adiw	r26, 0x11	; 17
    39c4:	9c 93       	st	X, r25
    39c6:	51 97       	sbiw	r26, 0x11	; 17
    39c8:	50 96       	adiw	r26, 0x10	; 16
    39ca:	8c 91       	ld	r24, X
    39cc:	50 97       	sbiw	r26, 0x10	; 16
    39ce:	1f 96       	adiw	r26, 0x0f	; 15
    39d0:	2c 91       	ld	r18, X
    39d2:	1f 97       	sbiw	r26, 0x0f	; 15
    39d4:	82 2b       	or	r24, r18
    39d6:	89 2b       	or	r24, r25
    39d8:	e9 f4       	brne	.+58     	; 0x3a14 <AdvanceLevel+0x4c0>
    39da:	fd 01       	movw	r30, r26
    39dc:	3f 96       	adiw	r30, 0x0f	; 15
    39de:	2c e5       	ldi	r18, 0x5C	; 92
    39e0:	34 e0       	ldi	r19, 0x04	; 4
    39e2:	83 e0       	ldi	r24, 0x03	; 3
    39e4:	8d a7       	lds	r24, 0x7d
    39e6:	89 81       	ldd	r24, Y+1	; 0x01
    39e8:	9a 81       	ldd	r25, Y+2	; 0x02
    39ea:	9a a7       	lds	r25, 0x7a
    39ec:	89 a7       	lds	r24, 0x79
    39ee:	fc a7       	lds	r31, 0x7c
    39f0:	eb a7       	lds	r30, 0x7b
    39f2:	f9 01       	movw	r30, r18
    39f4:	9d 01       	movw	r18, r26
    39f6:	83 e0       	ldi	r24, 0x03	; 3
    39f8:	df 01       	movw	r26, r30
    39fa:	eb a5       	lds	r30, 0x6b
    39fc:	fc a5       	lds	r31, 0x6c
    39fe:	0d 90       	ld	r0, X+
    3a00:	01 92       	st	Z+, r0
    3a02:	fc a7       	lds	r31, 0x7c
    3a04:	eb a7       	lds	r30, 0x7b
    3a06:	81 50       	subi	r24, 0x01	; 1
    3a08:	d1 f7       	brne	.-12     	; 0x39fe <AdvanceLevel+0x4aa>
    3a0a:	d9 01       	movw	r26, r18
    3a0c:	29 a5       	lds	r18, 0x69
    3a0e:	3a a5       	lds	r19, 0x6a
    3a10:	3a 83       	std	Y+2, r19	; 0x02
    3a12:	29 83       	std	Y+1, r18	; 0x01
    3a14:	8f 85       	ldd	r24, Y+15	; 0x0f
    3a16:	98 89       	ldd	r25, Y+16	; 0x10
    3a18:	84 23       	and	r24, r20
    3a1a:	95 23       	and	r25, r21
    3a1c:	00 97       	sbiw	r24, 0x00	; 0
    3a1e:	09 f4       	brne	.+2      	; 0x3a22 <AdvanceLevel+0x4ce>
    3a20:	7b c4       	rjmp	.+2294   	; 0x4318 <AdvanceLevel+0xdc4>
    3a22:	88 e0       	ldi	r24, 0x08	; 8
    3a24:	f8 01       	movw	r30, r16
    3a26:	80 83       	st	Z, r24
    3a28:	89 89       	ldd	r24, Y+17	; 0x11
    3a2a:	9a 89       	ldd	r25, Y+18	; 0x12
    3a2c:	84 23       	and	r24, r20
    3a2e:	95 23       	and	r25, r21
    3a30:	00 97       	sbiw	r24, 0x00	; 0
    3a32:	09 f4       	brne	.+2      	; 0x3a36 <AdvanceLevel+0x4e2>
    3a34:	65 c4       	rjmp	.+2250   	; 0x4300 <AdvanceLevel+0xdac>
    3a36:	88 e0       	ldi	r24, 0x08	; 8
    3a38:	f7 01       	movw	r30, r14
    3a3a:	80 83       	st	Z, r24
    3a3c:	8b 85       	ldd	r24, Y+11	; 0x0b
    3a3e:	9c 85       	ldd	r25, Y+12	; 0x0c
    3a40:	84 23       	and	r24, r20
    3a42:	95 23       	and	r25, r21
    3a44:	00 97       	sbiw	r24, 0x00	; 0
    3a46:	09 f4       	brne	.+2      	; 0x3a4a <AdvanceLevel+0x4f6>
    3a48:	65 c4       	rjmp	.+2250   	; 0x4314 <AdvanceLevel+0xdc0>
    3a4a:	98 e0       	ldi	r25, 0x08	; 8
    3a4c:	54 96       	adiw	r26, 0x14	; 20
    3a4e:	9c 93       	st	X, r25
    3a50:	54 97       	sbiw	r26, 0x14	; 20
    3a52:	f7 01       	movw	r30, r14
    3a54:	80 81       	ld	r24, Z
    3a56:	f8 01       	movw	r30, r16
    3a58:	20 81       	ld	r18, Z
    3a5a:	82 2b       	or	r24, r18
    3a5c:	89 2b       	or	r24, r25
    3a5e:	e9 f4       	brne	.+58     	; 0x3a9a <AdvanceLevel+0x546>
    3a60:	fd 01       	movw	r30, r26
    3a62:	72 96       	adiw	r30, 0x12	; 18
    3a64:	2c e5       	ldi	r18, 0x5C	; 92
    3a66:	34 e0       	ldi	r19, 0x04	; 4
    3a68:	83 e0       	ldi	r24, 0x03	; 3
    3a6a:	8d a7       	lds	r24, 0x7d
    3a6c:	89 81       	ldd	r24, Y+1	; 0x01
    3a6e:	9a 81       	ldd	r25, Y+2	; 0x02
    3a70:	9a a7       	lds	r25, 0x7a
    3a72:	89 a7       	lds	r24, 0x79
    3a74:	fc a7       	lds	r31, 0x7c
    3a76:	eb a7       	lds	r30, 0x7b
    3a78:	f9 01       	movw	r30, r18
    3a7a:	9d 01       	movw	r18, r26
    3a7c:	83 e0       	ldi	r24, 0x03	; 3
    3a7e:	df 01       	movw	r26, r30
    3a80:	eb a5       	lds	r30, 0x6b
    3a82:	fc a5       	lds	r31, 0x6c
    3a84:	0d 90       	ld	r0, X+
    3a86:	01 92       	st	Z+, r0
    3a88:	fc a7       	lds	r31, 0x7c
    3a8a:	eb a7       	lds	r30, 0x7b
    3a8c:	81 50       	subi	r24, 0x01	; 1
    3a8e:	d1 f7       	brne	.-12     	; 0x3a84 <AdvanceLevel+0x530>
    3a90:	d9 01       	movw	r26, r18
    3a92:	29 a5       	lds	r18, 0x69
    3a94:	3a a5       	lds	r19, 0x6a
    3a96:	3a 83       	std	Y+2, r19	; 0x02
    3a98:	29 83       	std	Y+1, r18	; 0x01
    3a9a:	8d 85       	ldd	r24, Y+13	; 0x0d
    3a9c:	9e 85       	ldd	r25, Y+14	; 0x0e
    3a9e:	84 23       	and	r24, r20
    3aa0:	95 23       	and	r25, r21
    3aa2:	00 97       	sbiw	r24, 0x00	; 0
    3aa4:	09 f4       	brne	.+2      	; 0x3aa8 <AdvanceLevel+0x554>
    3aa6:	58 c4       	rjmp	.+2224   	; 0x4358 <AdvanceLevel+0xe04>
    3aa8:	88 e0       	ldi	r24, 0x08	; 8
    3aaa:	e9 81       	ldd	r30, Y+1	; 0x01
    3aac:	fa 81       	ldd	r31, Y+2	; 0x02
    3aae:	80 83       	st	Z, r24
    3ab0:	89 85       	ldd	r24, Y+9	; 0x09
    3ab2:	9a 85       	ldd	r25, Y+10	; 0x0a
    3ab4:	84 23       	and	r24, r20
    3ab6:	95 23       	and	r25, r21
    3ab8:	00 97       	sbiw	r24, 0x00	; 0
    3aba:	09 f4       	brne	.+2      	; 0x3abe <AdvanceLevel+0x56a>
    3abc:	4b c4       	rjmp	.+2198   	; 0x4354 <AdvanceLevel+0xe00>
    3abe:	88 e0       	ldi	r24, 0x08	; 8
    3ac0:	fb 01       	movw	r30, r22
    3ac2:	80 83       	st	Z, r24
    3ac4:	ca 01       	movw	r24, r20
    3ac6:	2f 81       	ldd	r18, Y+7	; 0x07
    3ac8:	38 85       	ldd	r19, Y+8	; 0x08
    3aca:	82 23       	and	r24, r18
    3acc:	93 23       	and	r25, r19
    3ace:	00 97       	sbiw	r24, 0x00	; 0
    3ad0:	09 f4       	brne	.+2      	; 0x3ad4 <AdvanceLevel+0x580>
    3ad2:	3e c4       	rjmp	.+2172   	; 0x4350 <AdvanceLevel+0xdfc>
    3ad4:	98 e0       	ldi	r25, 0x08	; 8
    3ad6:	57 96       	adiw	r26, 0x17	; 23
    3ad8:	9c 93       	st	X, r25
    3ada:	57 97       	sbiw	r26, 0x17	; 23
    3adc:	fb 01       	movw	r30, r22
    3ade:	80 81       	ld	r24, Z
    3ae0:	e9 81       	ldd	r30, Y+1	; 0x01
    3ae2:	fa 81       	ldd	r31, Y+2	; 0x02
    3ae4:	20 81       	ld	r18, Z
    3ae6:	82 2b       	or	r24, r18
    3ae8:	89 2b       	or	r24, r25
    3aea:	69 f4       	brne	.+26     	; 0x3b06 <AdvanceLevel+0x5b2>
    3aec:	fd 01       	movw	r30, r26
    3aee:	75 96       	adiw	r30, 0x15	; 21
    3af0:	2c e5       	ldi	r18, 0x5C	; 92
    3af2:	34 e0       	ldi	r19, 0x04	; 4
    3af4:	83 e0       	ldi	r24, 0x03	; 3
    3af6:	a9 01       	movw	r20, r18
    3af8:	9d 01       	movw	r18, r26
    3afa:	da 01       	movw	r26, r20
    3afc:	0d 90       	ld	r0, X+
    3afe:	01 92       	st	Z+, r0
    3b00:	81 50       	subi	r24, 0x01	; 1
    3b02:	e1 f7       	brne	.-8      	; 0x3afc <AdvanceLevel+0x5a8>
    3b04:	d9 01       	movw	r26, r18
    3b06:	08 94       	sec
    3b08:	c1 1c       	adc	r12, r1
    3b0a:	d1 1c       	adc	r13, r1
    3b0c:	58 96       	adiw	r26, 0x18	; 24
    3b0e:	29 81       	ldd	r18, Y+1	; 0x01
    3b10:	3a 81       	ldd	r19, Y+2	; 0x02
    3b12:	28 5e       	subi	r18, 0xE8	; 232
    3b14:	3f 4f       	sbci	r19, 0xFF	; 255
    3b16:	3a 83       	std	Y+2, r19	; 0x02
    3b18:	29 83       	std	Y+1, r18	; 0x01
    3b1a:	68 5e       	subi	r22, 0xE8	; 232
    3b1c:	7f 4f       	sbci	r23, 0xFF	; 255
    3b1e:	08 5e       	subi	r16, 0xE8	; 232
    3b20:	1f 4f       	sbci	r17, 0xFF	; 255
    3b22:	88 e1       	ldi	r24, 0x18	; 24
    3b24:	90 e0       	ldi	r25, 0x00	; 0
    3b26:	e8 0e       	add	r14, r24
    3b28:	f9 1e       	adc	r15, r25
    3b2a:	98 e0       	ldi	r25, 0x08	; 8
    3b2c:	c9 16       	cp	r12, r25
    3b2e:	d1 04       	cpc	r13, r1
    3b30:	09 f0       	breq	.+2      	; 0x3b34 <AdvanceLevel+0x5e0>
    3b32:	c9 cd       	rjmp	.-1134   	; 0x36c6 <AdvanceLevel+0x172>
    3b34:	ad 96       	adiw	r28, 0x2d	; 45
    3b36:	0f b6       	in	r0, 0x3f	; 63
    3b38:	f8 94       	cli
    3b3a:	de bf       	out	0x3e, r29	; 62
    3b3c:	0f be       	out	0x3f, r0	; 63
    3b3e:	cd bf       	out	0x3d, r28	; 61
    3b40:	df 91       	pop	r29
    3b42:	cf 91       	pop	r28
    3b44:	1f 91       	pop	r17
    3b46:	0f 91       	pop	r16
    3b48:	ff 90       	pop	r15
    3b4a:	ef 90       	pop	r14
    3b4c:	df 90       	pop	r13
    3b4e:	cf 90       	pop	r12
    3b50:	bf 90       	pop	r11
    3b52:	af 90       	pop	r10
    3b54:	9f 90       	pop	r9
    3b56:	8f 90       	pop	r8
    3b58:	7f 90       	pop	r7
    3b5a:	6f 90       	pop	r6
    3b5c:	5f 90       	pop	r5
    3b5e:	4f 90       	pop	r4
    3b60:	3f 90       	pop	r3
    3b62:	2f 90       	pop	r2
    3b64:	08 95       	ret
    3b66:	90 91 5d 03 	lds	r25, 0x035D
    3b6a:	90 93 5a 03 	sts	0x035A, r25
    3b6e:	90 91 5e 03 	lds	r25, 0x035E
    3b72:	90 93 5b 03 	sts	0x035B, r25
    3b76:	90 91 5f 03 	lds	r25, 0x035F
    3b7a:	90 93 5c 03 	sts	0x035C, r25
    3b7e:	90 91 60 03 	lds	r25, 0x0360
    3b82:	90 93 5d 03 	sts	0x035D, r25
    3b86:	90 91 61 03 	lds	r25, 0x0361
    3b8a:	90 93 5e 03 	sts	0x035E, r25
    3b8e:	90 91 62 03 	lds	r25, 0x0362
    3b92:	90 93 5f 03 	sts	0x035F, r25
    3b96:	90 91 63 03 	lds	r25, 0x0363
    3b9a:	90 93 60 03 	sts	0x0360, r25
    3b9e:	90 91 64 03 	lds	r25, 0x0364
    3ba2:	90 93 61 03 	sts	0x0361, r25
    3ba6:	90 91 65 03 	lds	r25, 0x0365
    3baa:	90 93 62 03 	sts	0x0362, r25
    3bae:	90 91 66 03 	lds	r25, 0x0366
    3bb2:	90 93 63 03 	sts	0x0363, r25
    3bb6:	90 91 67 03 	lds	r25, 0x0367
    3bba:	90 93 64 03 	sts	0x0364, r25
    3bbe:	90 91 68 03 	lds	r25, 0x0368
    3bc2:	90 93 65 03 	sts	0x0365, r25
    3bc6:	90 91 69 03 	lds	r25, 0x0369
    3bca:	90 93 66 03 	sts	0x0366, r25
    3bce:	90 91 6a 03 	lds	r25, 0x036A
    3bd2:	90 93 67 03 	sts	0x0367, r25
    3bd6:	90 91 6b 03 	lds	r25, 0x036B
    3bda:	90 93 68 03 	sts	0x0368, r25
    3bde:	90 91 6c 03 	lds	r25, 0x036C
    3be2:	90 93 69 03 	sts	0x0369, r25
    3be6:	90 91 6d 03 	lds	r25, 0x036D
    3bea:	90 93 6a 03 	sts	0x036A, r25
    3bee:	90 91 6e 03 	lds	r25, 0x036E
    3bf2:	90 93 6b 03 	sts	0x036B, r25
    3bf6:	90 91 6f 03 	lds	r25, 0x036F
    3bfa:	90 93 6c 03 	sts	0x036C, r25
    3bfe:	90 91 70 03 	lds	r25, 0x0370
    3c02:	90 93 6d 03 	sts	0x036D, r25
    3c06:	90 91 71 03 	lds	r25, 0x0371
    3c0a:	90 93 6e 03 	sts	0x036E, r25
    3c0e:	90 91 75 03 	lds	r25, 0x0375
    3c12:	90 93 72 03 	sts	0x0372, r25
    3c16:	90 91 76 03 	lds	r25, 0x0376
    3c1a:	90 93 73 03 	sts	0x0373, r25
    3c1e:	90 91 77 03 	lds	r25, 0x0377
    3c22:	90 93 74 03 	sts	0x0374, r25
    3c26:	90 91 78 03 	lds	r25, 0x0378
    3c2a:	90 93 75 03 	sts	0x0375, r25
    3c2e:	90 91 79 03 	lds	r25, 0x0379
    3c32:	90 93 76 03 	sts	0x0376, r25
    3c36:	90 91 7a 03 	lds	r25, 0x037A
    3c3a:	90 93 77 03 	sts	0x0377, r25
    3c3e:	90 91 7b 03 	lds	r25, 0x037B
    3c42:	90 93 78 03 	sts	0x0378, r25
    3c46:	90 91 7c 03 	lds	r25, 0x037C
    3c4a:	90 93 79 03 	sts	0x0379, r25
    3c4e:	90 91 7d 03 	lds	r25, 0x037D
    3c52:	90 93 7a 03 	sts	0x037A, r25
    3c56:	90 91 7e 03 	lds	r25, 0x037E
    3c5a:	90 93 7b 03 	sts	0x037B, r25
    3c5e:	90 91 7f 03 	lds	r25, 0x037F
    3c62:	90 93 7c 03 	sts	0x037C, r25
    3c66:	90 91 80 03 	lds	r25, 0x0380
    3c6a:	90 93 7d 03 	sts	0x037D, r25
    3c6e:	90 91 81 03 	lds	r25, 0x0381
    3c72:	90 93 7e 03 	sts	0x037E, r25
    3c76:	90 91 82 03 	lds	r25, 0x0382
    3c7a:	90 93 7f 03 	sts	0x037F, r25
    3c7e:	90 91 83 03 	lds	r25, 0x0383
    3c82:	90 93 80 03 	sts	0x0380, r25
    3c86:	90 91 84 03 	lds	r25, 0x0384
    3c8a:	90 93 81 03 	sts	0x0381, r25
    3c8e:	90 91 85 03 	lds	r25, 0x0385
    3c92:	90 93 82 03 	sts	0x0382, r25
    3c96:	90 91 86 03 	lds	r25, 0x0386
    3c9a:	90 93 83 03 	sts	0x0383, r25
    3c9e:	90 91 87 03 	lds	r25, 0x0387
    3ca2:	90 93 84 03 	sts	0x0384, r25
    3ca6:	90 91 88 03 	lds	r25, 0x0388
    3caa:	90 93 85 03 	sts	0x0385, r25
    3cae:	90 91 89 03 	lds	r25, 0x0389
    3cb2:	90 93 86 03 	sts	0x0386, r25
    3cb6:	90 91 8d 03 	lds	r25, 0x038D
    3cba:	90 93 8a 03 	sts	0x038A, r25
    3cbe:	90 91 8e 03 	lds	r25, 0x038E
    3cc2:	90 93 8b 03 	sts	0x038B, r25
    3cc6:	90 91 8f 03 	lds	r25, 0x038F
    3cca:	90 93 8c 03 	sts	0x038C, r25
    3cce:	90 91 90 03 	lds	r25, 0x0390
    3cd2:	90 93 8d 03 	sts	0x038D, r25
    3cd6:	90 91 91 03 	lds	r25, 0x0391
    3cda:	90 93 8e 03 	sts	0x038E, r25
    3cde:	90 91 92 03 	lds	r25, 0x0392
    3ce2:	90 93 8f 03 	sts	0x038F, r25
    3ce6:	90 91 93 03 	lds	r25, 0x0393
    3cea:	90 93 90 03 	sts	0x0390, r25
    3cee:	90 91 94 03 	lds	r25, 0x0394
    3cf2:	90 93 91 03 	sts	0x0391, r25
    3cf6:	90 91 95 03 	lds	r25, 0x0395
    3cfa:	90 93 92 03 	sts	0x0392, r25
    3cfe:	90 91 96 03 	lds	r25, 0x0396
    3d02:	90 93 93 03 	sts	0x0393, r25
    3d06:	90 91 97 03 	lds	r25, 0x0397
    3d0a:	90 93 94 03 	sts	0x0394, r25
    3d0e:	90 91 98 03 	lds	r25, 0x0398
    3d12:	90 93 95 03 	sts	0x0395, r25
    3d16:	90 91 99 03 	lds	r25, 0x0399
    3d1a:	90 93 96 03 	sts	0x0396, r25
    3d1e:	90 91 9a 03 	lds	r25, 0x039A
    3d22:	90 93 97 03 	sts	0x0397, r25
    3d26:	90 91 9b 03 	lds	r25, 0x039B
    3d2a:	90 93 98 03 	sts	0x0398, r25
    3d2e:	90 91 9c 03 	lds	r25, 0x039C
    3d32:	90 93 99 03 	sts	0x0399, r25
    3d36:	90 91 9d 03 	lds	r25, 0x039D
    3d3a:	90 93 9a 03 	sts	0x039A, r25
    3d3e:	90 91 9e 03 	lds	r25, 0x039E
    3d42:	90 93 9b 03 	sts	0x039B, r25
    3d46:	90 91 9f 03 	lds	r25, 0x039F
    3d4a:	90 93 9c 03 	sts	0x039C, r25
    3d4e:	90 91 a0 03 	lds	r25, 0x03A0
    3d52:	90 93 9d 03 	sts	0x039D, r25
    3d56:	90 91 a1 03 	lds	r25, 0x03A1
    3d5a:	90 93 9e 03 	sts	0x039E, r25
    3d5e:	90 91 a5 03 	lds	r25, 0x03A5
    3d62:	90 93 a2 03 	sts	0x03A2, r25
    3d66:	90 91 a6 03 	lds	r25, 0x03A6
    3d6a:	90 93 a3 03 	sts	0x03A3, r25
    3d6e:	90 91 a7 03 	lds	r25, 0x03A7
    3d72:	90 93 a4 03 	sts	0x03A4, r25
    3d76:	90 91 a8 03 	lds	r25, 0x03A8
    3d7a:	90 93 a5 03 	sts	0x03A5, r25
    3d7e:	90 91 a9 03 	lds	r25, 0x03A9
    3d82:	90 93 a6 03 	sts	0x03A6, r25
    3d86:	90 91 aa 03 	lds	r25, 0x03AA
    3d8a:	90 93 a7 03 	sts	0x03A7, r25
    3d8e:	90 91 ab 03 	lds	r25, 0x03AB
    3d92:	90 93 a8 03 	sts	0x03A8, r25
    3d96:	90 91 ac 03 	lds	r25, 0x03AC
    3d9a:	90 93 a9 03 	sts	0x03A9, r25
    3d9e:	90 91 ad 03 	lds	r25, 0x03AD
    3da2:	90 93 aa 03 	sts	0x03AA, r25
    3da6:	90 91 ae 03 	lds	r25, 0x03AE
    3daa:	90 93 ab 03 	sts	0x03AB, r25
    3dae:	90 91 af 03 	lds	r25, 0x03AF
    3db2:	90 93 ac 03 	sts	0x03AC, r25
    3db6:	90 91 b0 03 	lds	r25, 0x03B0
    3dba:	90 93 ad 03 	sts	0x03AD, r25
    3dbe:	90 91 b1 03 	lds	r25, 0x03B1
    3dc2:	90 93 ae 03 	sts	0x03AE, r25
    3dc6:	90 91 b2 03 	lds	r25, 0x03B2
    3dca:	90 93 af 03 	sts	0x03AF, r25
    3dce:	90 91 b3 03 	lds	r25, 0x03B3
    3dd2:	90 93 b0 03 	sts	0x03B0, r25
    3dd6:	90 91 b4 03 	lds	r25, 0x03B4
    3dda:	90 93 b1 03 	sts	0x03B1, r25
    3dde:	90 91 b5 03 	lds	r25, 0x03B5
    3de2:	90 93 b2 03 	sts	0x03B2, r25
    3de6:	90 91 b6 03 	lds	r25, 0x03B6
    3dea:	90 93 b3 03 	sts	0x03B3, r25
    3dee:	90 91 b7 03 	lds	r25, 0x03B7
    3df2:	90 93 b4 03 	sts	0x03B4, r25
    3df6:	90 91 b8 03 	lds	r25, 0x03B8
    3dfa:	90 93 b5 03 	sts	0x03B5, r25
    3dfe:	90 91 b9 03 	lds	r25, 0x03B9
    3e02:	90 93 b6 03 	sts	0x03B6, r25
    3e06:	90 91 bd 03 	lds	r25, 0x03BD
    3e0a:	90 93 ba 03 	sts	0x03BA, r25
    3e0e:	90 91 be 03 	lds	r25, 0x03BE
    3e12:	90 93 bb 03 	sts	0x03BB, r25
    3e16:	90 91 bf 03 	lds	r25, 0x03BF
    3e1a:	90 93 bc 03 	sts	0x03BC, r25
    3e1e:	90 91 c0 03 	lds	r25, 0x03C0
    3e22:	90 93 bd 03 	sts	0x03BD, r25
    3e26:	90 91 c1 03 	lds	r25, 0x03C1
    3e2a:	90 93 be 03 	sts	0x03BE, r25
    3e2e:	90 91 c2 03 	lds	r25, 0x03C2
    3e32:	90 93 bf 03 	sts	0x03BF, r25
    3e36:	90 91 c3 03 	lds	r25, 0x03C3
    3e3a:	90 93 c0 03 	sts	0x03C0, r25
    3e3e:	90 91 c4 03 	lds	r25, 0x03C4
    3e42:	90 93 c1 03 	sts	0x03C1, r25
    3e46:	90 91 c5 03 	lds	r25, 0x03C5
    3e4a:	90 93 c2 03 	sts	0x03C2, r25
    3e4e:	90 91 c6 03 	lds	r25, 0x03C6
    3e52:	90 93 c3 03 	sts	0x03C3, r25
    3e56:	90 91 c7 03 	lds	r25, 0x03C7
    3e5a:	90 93 c4 03 	sts	0x03C4, r25
    3e5e:	90 91 c8 03 	lds	r25, 0x03C8
    3e62:	90 93 c5 03 	sts	0x03C5, r25
    3e66:	90 91 c9 03 	lds	r25, 0x03C9
    3e6a:	90 93 c6 03 	sts	0x03C6, r25
    3e6e:	90 91 ca 03 	lds	r25, 0x03CA
    3e72:	90 93 c7 03 	sts	0x03C7, r25
    3e76:	90 91 cb 03 	lds	r25, 0x03CB
    3e7a:	90 93 c8 03 	sts	0x03C8, r25
    3e7e:	90 91 cc 03 	lds	r25, 0x03CC
    3e82:	90 93 c9 03 	sts	0x03C9, r25
    3e86:	90 91 cd 03 	lds	r25, 0x03CD
    3e8a:	90 93 ca 03 	sts	0x03CA, r25
    3e8e:	90 91 ce 03 	lds	r25, 0x03CE
    3e92:	90 93 cb 03 	sts	0x03CB, r25
    3e96:	90 91 cf 03 	lds	r25, 0x03CF
    3e9a:	90 93 cc 03 	sts	0x03CC, r25
    3e9e:	90 91 d0 03 	lds	r25, 0x03D0
    3ea2:	90 93 cd 03 	sts	0x03CD, r25
    3ea6:	90 91 d1 03 	lds	r25, 0x03D1
    3eaa:	90 93 ce 03 	sts	0x03CE, r25
    3eae:	90 91 d5 03 	lds	r25, 0x03D5
    3eb2:	90 93 d2 03 	sts	0x03D2, r25
    3eb6:	90 91 d6 03 	lds	r25, 0x03D6
    3eba:	90 93 d3 03 	sts	0x03D3, r25
    3ebe:	90 91 d7 03 	lds	r25, 0x03D7
    3ec2:	90 93 d4 03 	sts	0x03D4, r25
    3ec6:	90 91 d8 03 	lds	r25, 0x03D8
    3eca:	90 93 d5 03 	sts	0x03D5, r25
    3ece:	90 91 d9 03 	lds	r25, 0x03D9
    3ed2:	90 93 d6 03 	sts	0x03D6, r25
    3ed6:	90 91 da 03 	lds	r25, 0x03DA
    3eda:	90 93 d7 03 	sts	0x03D7, r25
    3ede:	90 91 db 03 	lds	r25, 0x03DB
    3ee2:	90 93 d8 03 	sts	0x03D8, r25
    3ee6:	90 91 dc 03 	lds	r25, 0x03DC
    3eea:	90 93 d9 03 	sts	0x03D9, r25
    3eee:	90 91 dd 03 	lds	r25, 0x03DD
    3ef2:	90 93 da 03 	sts	0x03DA, r25
    3ef6:	90 91 de 03 	lds	r25, 0x03DE
    3efa:	90 93 db 03 	sts	0x03DB, r25
    3efe:	90 91 df 03 	lds	r25, 0x03DF
    3f02:	90 93 dc 03 	sts	0x03DC, r25
    3f06:	90 91 e0 03 	lds	r25, 0x03E0
    3f0a:	90 93 dd 03 	sts	0x03DD, r25
    3f0e:	90 91 e1 03 	lds	r25, 0x03E1
    3f12:	90 93 de 03 	sts	0x03DE, r25
    3f16:	90 91 e2 03 	lds	r25, 0x03E2
    3f1a:	90 93 df 03 	sts	0x03DF, r25
    3f1e:	90 91 e3 03 	lds	r25, 0x03E3
    3f22:	90 93 e0 03 	sts	0x03E0, r25
    3f26:	90 91 e4 03 	lds	r25, 0x03E4
    3f2a:	90 93 e1 03 	sts	0x03E1, r25
    3f2e:	90 91 e5 03 	lds	r25, 0x03E5
    3f32:	90 93 e2 03 	sts	0x03E2, r25
    3f36:	90 91 e6 03 	lds	r25, 0x03E6
    3f3a:	90 93 e3 03 	sts	0x03E3, r25
    3f3e:	90 91 e7 03 	lds	r25, 0x03E7
    3f42:	90 93 e4 03 	sts	0x03E4, r25
    3f46:	90 91 e8 03 	lds	r25, 0x03E8
    3f4a:	90 93 e5 03 	sts	0x03E5, r25
    3f4e:	90 91 e9 03 	lds	r25, 0x03E9
    3f52:	90 93 e6 03 	sts	0x03E6, r25
    3f56:	90 91 ed 03 	lds	r25, 0x03ED
    3f5a:	90 93 ea 03 	sts	0x03EA, r25
    3f5e:	90 91 ee 03 	lds	r25, 0x03EE
    3f62:	90 93 eb 03 	sts	0x03EB, r25
    3f66:	90 91 ef 03 	lds	r25, 0x03EF
    3f6a:	90 93 ec 03 	sts	0x03EC, r25
    3f6e:	90 91 f0 03 	lds	r25, 0x03F0
    3f72:	90 93 ed 03 	sts	0x03ED, r25
    3f76:	90 91 f1 03 	lds	r25, 0x03F1
    3f7a:	90 93 ee 03 	sts	0x03EE, r25
    3f7e:	90 91 f2 03 	lds	r25, 0x03F2
    3f82:	90 93 ef 03 	sts	0x03EF, r25
    3f86:	90 91 f3 03 	lds	r25, 0x03F3
    3f8a:	90 93 f0 03 	sts	0x03F0, r25
    3f8e:	90 91 f4 03 	lds	r25, 0x03F4
    3f92:	90 93 f1 03 	sts	0x03F1, r25
    3f96:	90 91 f5 03 	lds	r25, 0x03F5
    3f9a:	90 93 f2 03 	sts	0x03F2, r25
    3f9e:	90 91 f6 03 	lds	r25, 0x03F6
    3fa2:	90 93 f3 03 	sts	0x03F3, r25
    3fa6:	90 91 f7 03 	lds	r25, 0x03F7
    3faa:	90 93 f4 03 	sts	0x03F4, r25
    3fae:	90 91 f8 03 	lds	r25, 0x03F8
    3fb2:	90 93 f5 03 	sts	0x03F5, r25
    3fb6:	90 91 f9 03 	lds	r25, 0x03F9
    3fba:	90 93 f6 03 	sts	0x03F6, r25
    3fbe:	90 91 fa 03 	lds	r25, 0x03FA
    3fc2:	90 93 f7 03 	sts	0x03F7, r25
    3fc6:	90 91 fb 03 	lds	r25, 0x03FB
    3fca:	90 93 f8 03 	sts	0x03F8, r25
    3fce:	90 91 fc 03 	lds	r25, 0x03FC
    3fd2:	90 93 f9 03 	sts	0x03F9, r25
    3fd6:	90 91 fd 03 	lds	r25, 0x03FD
    3fda:	90 93 fa 03 	sts	0x03FA, r25
    3fde:	90 91 fe 03 	lds	r25, 0x03FE
    3fe2:	90 93 fb 03 	sts	0x03FB, r25
    3fe6:	90 91 ff 03 	lds	r25, 0x03FF
    3fea:	90 93 fc 03 	sts	0x03FC, r25
    3fee:	90 91 00 04 	lds	r25, 0x0400
    3ff2:	90 93 fd 03 	sts	0x03FD, r25
    3ff6:	90 91 01 04 	lds	r25, 0x0401
    3ffa:	90 93 fe 03 	sts	0x03FE, r25
    3ffe:	90 91 05 04 	lds	r25, 0x0405
    4002:	90 93 02 04 	sts	0x0402, r25
    4006:	90 91 06 04 	lds	r25, 0x0406
    400a:	90 93 03 04 	sts	0x0403, r25
    400e:	90 91 07 04 	lds	r25, 0x0407
    4012:	90 93 04 04 	sts	0x0404, r25
    4016:	90 91 08 04 	lds	r25, 0x0408
    401a:	90 93 05 04 	sts	0x0405, r25
    401e:	90 91 09 04 	lds	r25, 0x0409
    4022:	90 93 06 04 	sts	0x0406, r25
    4026:	90 91 0a 04 	lds	r25, 0x040A
    402a:	90 93 07 04 	sts	0x0407, r25
    402e:	90 91 0b 04 	lds	r25, 0x040B
    4032:	90 93 08 04 	sts	0x0408, r25
    4036:	90 91 0c 04 	lds	r25, 0x040C
    403a:	90 93 09 04 	sts	0x0409, r25
    403e:	90 91 0d 04 	lds	r25, 0x040D
    4042:	90 93 0a 04 	sts	0x040A, r25
    4046:	90 91 0e 04 	lds	r25, 0x040E
    404a:	90 93 0b 04 	sts	0x040B, r25
    404e:	90 91 0f 04 	lds	r25, 0x040F
    4052:	90 93 0c 04 	sts	0x040C, r25
    4056:	90 91 10 04 	lds	r25, 0x0410
    405a:	90 93 0d 04 	sts	0x040D, r25
    405e:	90 91 11 04 	lds	r25, 0x0411
    4062:	90 93 0e 04 	sts	0x040E, r25
    4066:	90 91 12 04 	lds	r25, 0x0412
    406a:	90 93 0f 04 	sts	0x040F, r25
    406e:	90 91 13 04 	lds	r25, 0x0413
    4072:	90 93 10 04 	sts	0x0410, r25
    4076:	90 91 14 04 	lds	r25, 0x0414
    407a:	90 93 11 04 	sts	0x0411, r25
    407e:	90 91 15 04 	lds	r25, 0x0415
    4082:	90 93 12 04 	sts	0x0412, r25
    4086:	90 91 16 04 	lds	r25, 0x0416
    408a:	90 93 13 04 	sts	0x0413, r25
    408e:	90 91 17 04 	lds	r25, 0x0417
    4092:	90 93 14 04 	sts	0x0414, r25
    4096:	90 91 18 04 	lds	r25, 0x0418
    409a:	90 93 15 04 	sts	0x0415, r25
    409e:	90 91 19 04 	lds	r25, 0x0419
    40a2:	90 93 16 04 	sts	0x0416, r25
    40a6:	90 e0       	ldi	r25, 0x00	; 0
    40a8:	07 96       	adiw	r24, 0x07	; 7
    40aa:	68 e7       	ldi	r22, 0x78	; 120
    40ac:	70 e0       	ldi	r23, 0x00	; 0
    40ae:	0e 94 59 2d 	call	0x5ab2	; 0x5ab2 <__divmodhi4>
    40b2:	ac 01       	movw	r20, r24
    40b4:	fc 01       	movw	r30, r24
    40b6:	e0 53       	subi	r30, 0x30	; 48
    40b8:	fd 4f       	sbci	r31, 0xFD	; 253
    40ba:	90 81       	ld	r25, Z
    40bc:	fa 01       	movw	r30, r20
    40be:	e8 5a       	subi	r30, 0xA8	; 168
    40c0:	fd 4f       	sbci	r31, 0xFD	; 253
    40c2:	20 81       	ld	r18, Z
    40c4:	40 52       	subi	r20, 0x20	; 32
    40c6:	5e 4f       	sbci	r21, 0xFE	; 254
    40c8:	fa 01       	movw	r30, r20
    40ca:	80 81       	ld	r24, Z
    40cc:	97 ff       	sbrs	r25, 7
    40ce:	74 c1       	rjmp	.+744    	; 0x43b8 <AdvanceLevel+0xe64>
    40d0:	38 e0       	ldi	r19, 0x08	; 8
    40d2:	30 93 6f 03 	sts	0x036F, r19
    40d6:	27 ff       	sbrs	r18, 7
    40d8:	6d c1       	rjmp	.+730    	; 0x43b4 <AdvanceLevel+0xe60>
    40da:	38 e0       	ldi	r19, 0x08	; 8
    40dc:	30 93 70 03 	sts	0x0370, r19
    40e0:	87 ff       	sbrs	r24, 7
    40e2:	66 c1       	rjmp	.+716    	; 0x43b0 <AdvanceLevel+0xe5c>
    40e4:	48 e0       	ldi	r20, 0x08	; 8
    40e6:	40 93 71 03 	sts	0x0371, r20
    40ea:	30 91 70 03 	lds	r19, 0x0370
    40ee:	50 91 6f 03 	lds	r21, 0x036F
    40f2:	35 2b       	or	r19, r21
    40f4:	34 2b       	or	r19, r20
    40f6:	49 f4       	brne	.+18     	; 0x410a <AdvanceLevel+0xbb6>
    40f8:	af e6       	ldi	r26, 0x6F	; 111
    40fa:	b3 e0       	ldi	r27, 0x03	; 3
    40fc:	ec e5       	ldi	r30, 0x5C	; 92
    40fe:	f4 e0       	ldi	r31, 0x04	; 4
    4100:	33 e0       	ldi	r19, 0x03	; 3
    4102:	01 90       	ld	r0, Z+
    4104:	0d 92       	st	X+, r0
    4106:	31 50       	subi	r19, 0x01	; 1
    4108:	e1 f7       	brne	.-8      	; 0x4102 <AdvanceLevel+0xbae>
    410a:	96 ff       	sbrs	r25, 6
    410c:	4f c1       	rjmp	.+670    	; 0x43ac <AdvanceLevel+0xe58>
    410e:	38 e0       	ldi	r19, 0x08	; 8
    4110:	30 93 87 03 	sts	0x0387, r19
    4114:	26 ff       	sbrs	r18, 6
    4116:	48 c1       	rjmp	.+656    	; 0x43a8 <AdvanceLevel+0xe54>
    4118:	38 e0       	ldi	r19, 0x08	; 8
    411a:	30 93 88 03 	sts	0x0388, r19
    411e:	86 ff       	sbrs	r24, 6
    4120:	41 c1       	rjmp	.+642    	; 0x43a4 <AdvanceLevel+0xe50>
    4122:	48 e0       	ldi	r20, 0x08	; 8
    4124:	40 93 89 03 	sts	0x0389, r20
    4128:	30 91 88 03 	lds	r19, 0x0388
    412c:	50 91 87 03 	lds	r21, 0x0387
    4130:	35 2b       	or	r19, r21
    4132:	34 2b       	or	r19, r20
    4134:	49 f4       	brne	.+18     	; 0x4148 <AdvanceLevel+0xbf4>
    4136:	a7 e8       	ldi	r26, 0x87	; 135
    4138:	b3 e0       	ldi	r27, 0x03	; 3
    413a:	ec e5       	ldi	r30, 0x5C	; 92
    413c:	f4 e0       	ldi	r31, 0x04	; 4
    413e:	33 e0       	ldi	r19, 0x03	; 3
    4140:	01 90       	ld	r0, Z+
    4142:	0d 92       	st	X+, r0
    4144:	31 50       	subi	r19, 0x01	; 1
    4146:	e1 f7       	brne	.-8      	; 0x4140 <AdvanceLevel+0xbec>
    4148:	95 ff       	sbrs	r25, 5
    414a:	2a c1       	rjmp	.+596    	; 0x43a0 <AdvanceLevel+0xe4c>
    414c:	38 e0       	ldi	r19, 0x08	; 8
    414e:	30 93 9f 03 	sts	0x039F, r19
    4152:	25 ff       	sbrs	r18, 5
    4154:	23 c1       	rjmp	.+582    	; 0x439c <AdvanceLevel+0xe48>
    4156:	38 e0       	ldi	r19, 0x08	; 8
    4158:	30 93 a0 03 	sts	0x03A0, r19
    415c:	85 ff       	sbrs	r24, 5
    415e:	1c c1       	rjmp	.+568    	; 0x4398 <AdvanceLevel+0xe44>
    4160:	48 e0       	ldi	r20, 0x08	; 8
    4162:	40 93 a1 03 	sts	0x03A1, r20
    4166:	30 91 a0 03 	lds	r19, 0x03A0
    416a:	50 91 9f 03 	lds	r21, 0x039F
    416e:	35 2b       	or	r19, r21
    4170:	34 2b       	or	r19, r20
    4172:	49 f4       	brne	.+18     	; 0x4186 <AdvanceLevel+0xc32>
    4174:	af e9       	ldi	r26, 0x9F	; 159
    4176:	b3 e0       	ldi	r27, 0x03	; 3
    4178:	ec e5       	ldi	r30, 0x5C	; 92
    417a:	f4 e0       	ldi	r31, 0x04	; 4
    417c:	33 e0       	ldi	r19, 0x03	; 3
    417e:	01 90       	ld	r0, Z+
    4180:	0d 92       	st	X+, r0
    4182:	31 50       	subi	r19, 0x01	; 1
    4184:	e1 f7       	brne	.-8      	; 0x417e <AdvanceLevel+0xc2a>
    4186:	94 ff       	sbrs	r25, 4
    4188:	05 c1       	rjmp	.+522    	; 0x4394 <AdvanceLevel+0xe40>
    418a:	38 e0       	ldi	r19, 0x08	; 8
    418c:	30 93 b7 03 	sts	0x03B7, r19
    4190:	24 ff       	sbrs	r18, 4
    4192:	fe c0       	rjmp	.+508    	; 0x4390 <AdvanceLevel+0xe3c>
    4194:	38 e0       	ldi	r19, 0x08	; 8
    4196:	30 93 b8 03 	sts	0x03B8, r19
    419a:	84 ff       	sbrs	r24, 4
    419c:	f7 c0       	rjmp	.+494    	; 0x438c <AdvanceLevel+0xe38>
    419e:	48 e0       	ldi	r20, 0x08	; 8
    41a0:	40 93 b9 03 	sts	0x03B9, r20
    41a4:	30 91 b8 03 	lds	r19, 0x03B8
    41a8:	50 91 b7 03 	lds	r21, 0x03B7
    41ac:	35 2b       	or	r19, r21
    41ae:	34 2b       	or	r19, r20
    41b0:	49 f4       	brne	.+18     	; 0x41c4 <AdvanceLevel+0xc70>
    41b2:	a7 eb       	ldi	r26, 0xB7	; 183
    41b4:	b3 e0       	ldi	r27, 0x03	; 3
    41b6:	ec e5       	ldi	r30, 0x5C	; 92
    41b8:	f4 e0       	ldi	r31, 0x04	; 4
    41ba:	33 e0       	ldi	r19, 0x03	; 3
    41bc:	01 90       	ld	r0, Z+
    41be:	0d 92       	st	X+, r0
    41c0:	31 50       	subi	r19, 0x01	; 1
    41c2:	e1 f7       	brne	.-8      	; 0x41bc <AdvanceLevel+0xc68>
    41c4:	93 ff       	sbrs	r25, 3
    41c6:	e0 c0       	rjmp	.+448    	; 0x4388 <AdvanceLevel+0xe34>
    41c8:	38 e0       	ldi	r19, 0x08	; 8
    41ca:	30 93 cf 03 	sts	0x03CF, r19
    41ce:	23 ff       	sbrs	r18, 3
    41d0:	d9 c0       	rjmp	.+434    	; 0x4384 <AdvanceLevel+0xe30>
    41d2:	38 e0       	ldi	r19, 0x08	; 8
    41d4:	30 93 d0 03 	sts	0x03D0, r19
    41d8:	83 ff       	sbrs	r24, 3
    41da:	d2 c0       	rjmp	.+420    	; 0x4380 <AdvanceLevel+0xe2c>
    41dc:	48 e0       	ldi	r20, 0x08	; 8
    41de:	40 93 d1 03 	sts	0x03D1, r20
    41e2:	30 91 d0 03 	lds	r19, 0x03D0
    41e6:	50 91 cf 03 	lds	r21, 0x03CF
    41ea:	35 2b       	or	r19, r21
    41ec:	34 2b       	or	r19, r20
    41ee:	49 f4       	brne	.+18     	; 0x4202 <AdvanceLevel+0xcae>
    41f0:	af ec       	ldi	r26, 0xCF	; 207
    41f2:	b3 e0       	ldi	r27, 0x03	; 3
    41f4:	ec e5       	ldi	r30, 0x5C	; 92
    41f6:	f4 e0       	ldi	r31, 0x04	; 4
    41f8:	33 e0       	ldi	r19, 0x03	; 3
    41fa:	01 90       	ld	r0, Z+
    41fc:	0d 92       	st	X+, r0
    41fe:	31 50       	subi	r19, 0x01	; 1
    4200:	e1 f7       	brne	.-8      	; 0x41fa <AdvanceLevel+0xca6>
    4202:	92 ff       	sbrs	r25, 2
    4204:	bb c0       	rjmp	.+374    	; 0x437c <AdvanceLevel+0xe28>
    4206:	38 e0       	ldi	r19, 0x08	; 8
    4208:	30 93 e7 03 	sts	0x03E7, r19
    420c:	22 ff       	sbrs	r18, 2
    420e:	b4 c0       	rjmp	.+360    	; 0x4378 <AdvanceLevel+0xe24>
    4210:	38 e0       	ldi	r19, 0x08	; 8
    4212:	30 93 e8 03 	sts	0x03E8, r19
    4216:	82 ff       	sbrs	r24, 2
    4218:	ad c0       	rjmp	.+346    	; 0x4374 <AdvanceLevel+0xe20>
    421a:	48 e0       	ldi	r20, 0x08	; 8
    421c:	40 93 e9 03 	sts	0x03E9, r20
    4220:	30 91 e8 03 	lds	r19, 0x03E8
    4224:	50 91 e7 03 	lds	r21, 0x03E7
    4228:	35 2b       	or	r19, r21
    422a:	34 2b       	or	r19, r20
    422c:	49 f4       	brne	.+18     	; 0x4240 <AdvanceLevel+0xcec>
    422e:	a7 ee       	ldi	r26, 0xE7	; 231
    4230:	b3 e0       	ldi	r27, 0x03	; 3
    4232:	ec e5       	ldi	r30, 0x5C	; 92
    4234:	f4 e0       	ldi	r31, 0x04	; 4
    4236:	33 e0       	ldi	r19, 0x03	; 3
    4238:	01 90       	ld	r0, Z+
    423a:	0d 92       	st	X+, r0
    423c:	31 50       	subi	r19, 0x01	; 1
    423e:	e1 f7       	brne	.-8      	; 0x4238 <AdvanceLevel+0xce4>
    4240:	91 ff       	sbrs	r25, 1
    4242:	96 c0       	rjmp	.+300    	; 0x4370 <AdvanceLevel+0xe1c>
    4244:	38 e0       	ldi	r19, 0x08	; 8
    4246:	30 93 ff 03 	sts	0x03FF, r19
    424a:	21 ff       	sbrs	r18, 1
    424c:	8f c0       	rjmp	.+286    	; 0x436c <AdvanceLevel+0xe18>
    424e:	38 e0       	ldi	r19, 0x08	; 8
    4250:	30 93 00 04 	sts	0x0400, r19
    4254:	81 ff       	sbrs	r24, 1
    4256:	82 c0       	rjmp	.+260    	; 0x435c <AdvanceLevel+0xe08>
    4258:	48 e0       	ldi	r20, 0x08	; 8
    425a:	40 93 01 04 	sts	0x0401, r20
    425e:	30 91 00 04 	lds	r19, 0x0400
    4262:	50 91 ff 03 	lds	r21, 0x03FF
    4266:	35 2b       	or	r19, r21
    4268:	34 2b       	or	r19, r20
    426a:	49 f4       	brne	.+18     	; 0x427e <AdvanceLevel+0xd2a>
    426c:	af ef       	ldi	r26, 0xFF	; 255
    426e:	b3 e0       	ldi	r27, 0x03	; 3
    4270:	ec e5       	ldi	r30, 0x5C	; 92
    4272:	f4 e0       	ldi	r31, 0x04	; 4
    4274:	33 e0       	ldi	r19, 0x03	; 3
    4276:	01 90       	ld	r0, Z+
    4278:	0d 92       	st	X+, r0
    427a:	31 50       	subi	r19, 0x01	; 1
    427c:	e1 f7       	brne	.-8      	; 0x4276 <AdvanceLevel+0xd22>
    427e:	90 ff       	sbrs	r25, 0
    4280:	73 c0       	rjmp	.+230    	; 0x4368 <AdvanceLevel+0xe14>
    4282:	98 e0       	ldi	r25, 0x08	; 8
    4284:	90 93 17 04 	sts	0x0417, r25
    4288:	20 ff       	sbrs	r18, 0
    428a:	6c c0       	rjmp	.+216    	; 0x4364 <AdvanceLevel+0xe10>
    428c:	98 e0       	ldi	r25, 0x08	; 8
    428e:	90 93 18 04 	sts	0x0418, r25
    4292:	80 ff       	sbrs	r24, 0
    4294:	65 c0       	rjmp	.+202    	; 0x4360 <AdvanceLevel+0xe0c>
    4296:	98 e0       	ldi	r25, 0x08	; 8
    4298:	90 93 19 04 	sts	0x0419, r25
    429c:	80 91 18 04 	lds	r24, 0x0418
    42a0:	20 91 17 04 	lds	r18, 0x0417
    42a4:	82 2b       	or	r24, r18
    42a6:	89 2b       	or	r24, r25
    42a8:	09 f0       	breq	.+2      	; 0x42ac <AdvanceLevel+0xd58>
    42aa:	44 cc       	rjmp	.-1912   	; 0x3b34 <AdvanceLevel+0x5e0>
    42ac:	a7 e1       	ldi	r26, 0x17	; 23
    42ae:	b4 e0       	ldi	r27, 0x04	; 4
    42b0:	ec e5       	ldi	r30, 0x5C	; 92
    42b2:	f4 e0       	ldi	r31, 0x04	; 4
    42b4:	83 e0       	ldi	r24, 0x03	; 3
    42b6:	01 90       	ld	r0, Z+
    42b8:	0d 92       	st	X+, r0
    42ba:	81 50       	subi	r24, 0x01	; 1
    42bc:	e1 f7       	brne	.-8      	; 0x42b6 <AdvanceLevel+0xd62>
    42be:	3a cc       	rjmp	.-1932   	; 0x3b34 <AdvanceLevel+0x5e0>
    42c0:	80 e0       	ldi	r24, 0x00	; 0
    42c2:	8c 93       	st	X, r24
    42c4:	ca 01       	movw	r24, r20
    42c6:	88 21       	and	r24, r8
    42c8:	99 21       	and	r25, r9
    42ca:	00 97       	sbiw	r24, 0x00	; 0
    42cc:	09 f0       	breq	.+2      	; 0x42d0 <AdvanceLevel+0xd7c>
    42ce:	11 ca       	rjmp	.-3038   	; 0x36f2 <AdvanceLevel+0x19e>
    42d0:	80 e0       	ldi	r24, 0x00	; 0
    42d2:	11 96       	adiw	r26, 0x01	; 1
    42d4:	8c 93       	st	X, r24
    42d6:	11 97       	sbiw	r26, 0x01	; 1
    42d8:	ca 01       	movw	r24, r20
    42da:	86 21       	and	r24, r6
    42dc:	97 21       	and	r25, r7
    42de:	00 97       	sbiw	r24, 0x00	; 0
    42e0:	09 f0       	breq	.+2      	; 0x42e4 <AdvanceLevel+0xd90>
    42e2:	11 ca       	rjmp	.-3038   	; 0x3706 <AdvanceLevel+0x1b2>
    42e4:	90 e0       	ldi	r25, 0x00	; 0
    42e6:	10 ca       	rjmp	.-3040   	; 0x3708 <AdvanceLevel+0x1b4>
    42e8:	80 e0       	ldi	r24, 0x00	; 0
    42ea:	13 96       	adiw	r26, 0x03	; 3
    42ec:	8c 93       	st	X, r24
    42ee:	13 97       	sbiw	r26, 0x03	; 3
    42f0:	ca 01       	movw	r24, r20
    42f2:	82 21       	and	r24, r2
    42f4:	93 21       	and	r25, r3
    42f6:	00 97       	sbiw	r24, 0x00	; 0
    42f8:	09 f0       	breq	.+2      	; 0x42fc <AdvanceLevel+0xda8>
    42fa:	3b ca       	rjmp	.-2954   	; 0x3772 <AdvanceLevel+0x21e>
    42fc:	80 e0       	ldi	r24, 0x00	; 0
    42fe:	3a ca       	rjmp	.-2956   	; 0x3774 <AdvanceLevel+0x220>
    4300:	80 e0       	ldi	r24, 0x00	; 0
    4302:	f7 01       	movw	r30, r14
    4304:	80 83       	st	Z, r24
    4306:	8b 85       	ldd	r24, Y+11	; 0x0b
    4308:	9c 85       	ldd	r25, Y+12	; 0x0c
    430a:	84 23       	and	r24, r20
    430c:	95 23       	and	r25, r21
    430e:	00 97       	sbiw	r24, 0x00	; 0
    4310:	09 f0       	breq	.+2      	; 0x4314 <AdvanceLevel+0xdc0>
    4312:	9b cb       	rjmp	.-2250   	; 0x3a4a <AdvanceLevel+0x4f6>
    4314:	90 e0       	ldi	r25, 0x00	; 0
    4316:	9a cb       	rjmp	.-2252   	; 0x3a4c <AdvanceLevel+0x4f8>
    4318:	80 e0       	ldi	r24, 0x00	; 0
    431a:	84 cb       	rjmp	.-2296   	; 0x3a24 <AdvanceLevel+0x4d0>
    431c:	90 e0       	ldi	r25, 0x00	; 0
    431e:	51 cb       	rjmp	.-2398   	; 0x39c2 <AdvanceLevel+0x46e>
    4320:	80 e0       	ldi	r24, 0x00	; 0
    4322:	44 cb       	rjmp	.-2424   	; 0x39ac <AdvanceLevel+0x458>
    4324:	80 e0       	ldi	r24, 0x00	; 0
    4326:	37 cb       	rjmp	.-2450   	; 0x3996 <AdvanceLevel+0x442>
    4328:	90 e0       	ldi	r25, 0x00	; 0
    432a:	04 cb       	rjmp	.-2552   	; 0x3934 <AdvanceLevel+0x3e0>
    432c:	80 e0       	ldi	r24, 0x00	; 0
    432e:	f7 ca       	rjmp	.-2578   	; 0x391e <AdvanceLevel+0x3ca>
    4330:	80 e0       	ldi	r24, 0x00	; 0
    4332:	ea ca       	rjmp	.-2604   	; 0x3908 <AdvanceLevel+0x3b4>
    4334:	90 e0       	ldi	r25, 0x00	; 0
    4336:	b7 ca       	rjmp	.-2706   	; 0x38a6 <AdvanceLevel+0x352>
    4338:	80 e0       	ldi	r24, 0x00	; 0
    433a:	aa ca       	rjmp	.-2732   	; 0x3890 <AdvanceLevel+0x33c>
    433c:	80 e0       	ldi	r24, 0x00	; 0
    433e:	9d ca       	rjmp	.-2758   	; 0x387a <AdvanceLevel+0x326>
    4340:	90 e0       	ldi	r25, 0x00	; 0
    4342:	6a ca       	rjmp	.-2860   	; 0x3818 <AdvanceLevel+0x2c4>
    4344:	80 e0       	ldi	r24, 0x00	; 0
    4346:	5d ca       	rjmp	.-2886   	; 0x3802 <AdvanceLevel+0x2ae>
    4348:	80 e0       	ldi	r24, 0x00	; 0
    434a:	50 ca       	rjmp	.-2912   	; 0x37ec <AdvanceLevel+0x298>
    434c:	90 e0       	ldi	r25, 0x00	; 0
    434e:	1d ca       	rjmp	.-3014   	; 0x378a <AdvanceLevel+0x236>
    4350:	90 e0       	ldi	r25, 0x00	; 0
    4352:	c1 cb       	rjmp	.-2174   	; 0x3ad6 <AdvanceLevel+0x582>
    4354:	80 e0       	ldi	r24, 0x00	; 0
    4356:	b4 cb       	rjmp	.-2200   	; 0x3ac0 <AdvanceLevel+0x56c>
    4358:	80 e0       	ldi	r24, 0x00	; 0
    435a:	a7 cb       	rjmp	.-2226   	; 0x3aaa <AdvanceLevel+0x556>
    435c:	40 e0       	ldi	r20, 0x00	; 0
    435e:	7d cf       	rjmp	.-262    	; 0x425a <AdvanceLevel+0xd06>
    4360:	90 e0       	ldi	r25, 0x00	; 0
    4362:	9a cf       	rjmp	.-204    	; 0x4298 <AdvanceLevel+0xd44>
    4364:	90 e0       	ldi	r25, 0x00	; 0
    4366:	93 cf       	rjmp	.-218    	; 0x428e <AdvanceLevel+0xd3a>
    4368:	90 e0       	ldi	r25, 0x00	; 0
    436a:	8c cf       	rjmp	.-232    	; 0x4284 <AdvanceLevel+0xd30>
    436c:	30 e0       	ldi	r19, 0x00	; 0
    436e:	70 cf       	rjmp	.-288    	; 0x4250 <AdvanceLevel+0xcfc>
    4370:	30 e0       	ldi	r19, 0x00	; 0
    4372:	69 cf       	rjmp	.-302    	; 0x4246 <AdvanceLevel+0xcf2>
    4374:	40 e0       	ldi	r20, 0x00	; 0
    4376:	52 cf       	rjmp	.-348    	; 0x421c <AdvanceLevel+0xcc8>
    4378:	30 e0       	ldi	r19, 0x00	; 0
    437a:	4b cf       	rjmp	.-362    	; 0x4212 <AdvanceLevel+0xcbe>
    437c:	30 e0       	ldi	r19, 0x00	; 0
    437e:	44 cf       	rjmp	.-376    	; 0x4208 <AdvanceLevel+0xcb4>
    4380:	40 e0       	ldi	r20, 0x00	; 0
    4382:	2d cf       	rjmp	.-422    	; 0x41de <AdvanceLevel+0xc8a>
    4384:	30 e0       	ldi	r19, 0x00	; 0
    4386:	26 cf       	rjmp	.-436    	; 0x41d4 <AdvanceLevel+0xc80>
    4388:	30 e0       	ldi	r19, 0x00	; 0
    438a:	1f cf       	rjmp	.-450    	; 0x41ca <AdvanceLevel+0xc76>
    438c:	40 e0       	ldi	r20, 0x00	; 0
    438e:	08 cf       	rjmp	.-496    	; 0x41a0 <AdvanceLevel+0xc4c>
    4390:	30 e0       	ldi	r19, 0x00	; 0
    4392:	01 cf       	rjmp	.-510    	; 0x4196 <AdvanceLevel+0xc42>
    4394:	30 e0       	ldi	r19, 0x00	; 0
    4396:	fa ce       	rjmp	.-524    	; 0x418c <AdvanceLevel+0xc38>
    4398:	40 e0       	ldi	r20, 0x00	; 0
    439a:	e3 ce       	rjmp	.-570    	; 0x4162 <AdvanceLevel+0xc0e>
    439c:	30 e0       	ldi	r19, 0x00	; 0
    439e:	dc ce       	rjmp	.-584    	; 0x4158 <AdvanceLevel+0xc04>
    43a0:	30 e0       	ldi	r19, 0x00	; 0
    43a2:	d5 ce       	rjmp	.-598    	; 0x414e <AdvanceLevel+0xbfa>
    43a4:	40 e0       	ldi	r20, 0x00	; 0
    43a6:	be ce       	rjmp	.-644    	; 0x4124 <AdvanceLevel+0xbd0>
    43a8:	30 e0       	ldi	r19, 0x00	; 0
    43aa:	b7 ce       	rjmp	.-658    	; 0x411a <AdvanceLevel+0xbc6>
    43ac:	30 e0       	ldi	r19, 0x00	; 0
    43ae:	b0 ce       	rjmp	.-672    	; 0x4110 <AdvanceLevel+0xbbc>
    43b0:	40 e0       	ldi	r20, 0x00	; 0
    43b2:	99 ce       	rjmp	.-718    	; 0x40e6 <AdvanceLevel+0xb92>
    43b4:	30 e0       	ldi	r19, 0x00	; 0
    43b6:	92 ce       	rjmp	.-732    	; 0x40dc <AdvanceLevel+0xb88>
    43b8:	30 e0       	ldi	r19, 0x00	; 0
    43ba:	8b ce       	rjmp	.-746    	; 0x40d2 <AdvanceLevel+0xb7e>

000043bc <moveMario>:
    43bc:	ef 92       	push	r14
    43be:	ff 92       	push	r15
    43c0:	0f 93       	push	r16
    43c2:	1f 93       	push	r17
    43c4:	cf 93       	push	r28
    43c6:	df 93       	push	r29
    43c8:	fc 01       	movw	r30, r24
    43ca:	80 91 74 04 	lds	r24, 0x0474
    43ce:	80 ff       	sbrs	r24, 0
    43d0:	5c c0       	rjmp	.+184    	; 0x448a <moveMario+0xce>
    43d2:	90 91 52 01 	lds	r25, 0x0152
    43d6:	99 23       	and	r25, r25
    43d8:	31 f4       	brne	.+12     	; 0x43e6 <moveMario+0x2a>
    43da:	91 e0       	ldi	r25, 0x01	; 1
    43dc:	90 93 52 01 	sts	0x0152, r25
    43e0:	9f e0       	ldi	r25, 0x0F	; 15
    43e2:	90 93 56 01 	sts	0x0156, r25
    43e6:	86 ff       	sbrs	r24, 6
    43e8:	4a c1       	rjmp	.+660    	; 0x467e <moveMario+0x2c2>
    43ea:	92 e0       	ldi	r25, 0x02	; 2
    43ec:	90 93 72 04 	sts	0x0472, r25
    43f0:	a0 91 56 01 	lds	r26, 0x0156
    43f4:	ae 5f       	subi	r26, 0xFE	; 254
    43f6:	a0 93 56 01 	sts	0x0156, r26
    43fa:	87 fd       	sbrc	r24, 7
    43fc:	51 c0       	rjmp	.+162    	; 0x44a0 <moveMario+0xe4>
    43fe:	10 92 54 01 	sts	0x0154, r1
    4402:	80 91 57 01 	lds	r24, 0x0157
    4406:	b8 2f       	mov	r27, r24
    4408:	18 16       	cp	r1, r24
    440a:	0c f0       	brlt	.+2      	; 0x440e <moveMario+0x52>
    440c:	4c c1       	rjmp	.+664    	; 0x46a6 <moveMario+0x2ea>
    440e:	65 e0       	ldi	r22, 0x05	; 5
    4410:	0e 94 38 2d 	call	0x5a70	; 0x5a70 <__divmodqi4>
    4414:	91 30       	cpi	r25, 0x01	; 1
    4416:	09 f4       	brne	.+2      	; 0x441a <moveMario+0x5e>
    4418:	54 c0       	rjmp	.+168    	; 0x44c2 <moveMario+0x106>
    441a:	50 91 f4 00 	lds	r21, 0x00F4
    441e:	b1 50       	subi	r27, 0x01	; 1
    4420:	b0 93 57 01 	sts	0x0157, r27
    4424:	40 91 7e 04 	lds	r20, 0x047E
    4428:	af 30       	cpi	r26, 0x0F	; 15
    442a:	0c f4       	brge	.+2      	; 0x442e <moveMario+0x72>
    442c:	98 c0       	rjmp	.+304    	; 0x455e <moveMario+0x1a2>
    442e:	47 37       	cpi	r20, 0x77	; 119
    4430:	b8 f4       	brcc	.+46     	; 0x4460 <moveMario+0xa4>
    4432:	64 2f       	mov	r22, r20
    4434:	70 e0       	ldi	r23, 0x00	; 0
    4436:	b0 91 7f 04 	lds	r27, 0x047F
    443a:	cb 2f       	mov	r28, r27
    443c:	d0 e0       	ldi	r29, 0x00	; 0
    443e:	fb 01       	movw	r30, r22
    4440:	e8 59       	subi	r30, 0x98	; 152
    4442:	fe 4f       	sbci	r31, 0xFE	; 254
    4444:	81 81       	ldd	r24, Z+1	; 0x01
    4446:	90 e0       	ldi	r25, 0x00	; 0
    4448:	20 e8       	ldi	r18, 0x80	; 128
    444a:	30 e0       	ldi	r19, 0x00	; 0
    444c:	02 c0       	rjmp	.+4      	; 0x4452 <moveMario+0x96>
    444e:	35 95       	asr	r19
    4450:	27 95       	ror	r18
    4452:	ba 95       	dec	r27
    4454:	e2 f7       	brpl	.-8      	; 0x444e <moveMario+0x92>
    4456:	82 23       	and	r24, r18
    4458:	93 23       	and	r25, r19
    445a:	00 97       	sbiw	r24, 0x00	; 0
    445c:	09 f4       	brne	.+2      	; 0x4460 <moveMario+0xa4>
    445e:	af c1       	rjmp	.+862    	; 0x47be <moveMario+0x402>
    4460:	a0 31       	cpi	r26, 0x10	; 16
    4462:	1c f0       	brlt	.+6      	; 0x446a <moveMario+0xae>
    4464:	84 e1       	ldi	r24, 0x14	; 20
    4466:	80 93 56 01 	sts	0x0156, r24
    446a:	84 2f       	mov	r24, r20
    446c:	90 e0       	ldi	r25, 0x00	; 0
    446e:	85 1b       	sub	r24, r21
    4470:	91 09       	sbc	r25, r1
    4472:	84 30       	cpi	r24, 0x04	; 4
    4474:	91 05       	cpc	r25, r1
    4476:	14 f0       	brlt	.+4      	; 0x447c <moveMario+0xc0>
    4478:	0e 94 aa 1a 	call	0x3554	; 0x3554 <AdvanceLevel>
    447c:	df 91       	pop	r29
    447e:	cf 91       	pop	r28
    4480:	1f 91       	pop	r17
    4482:	0f 91       	pop	r16
    4484:	ff 90       	pop	r15
    4486:	ef 90       	pop	r14
    4488:	08 95       	ret
    448a:	81 fd       	sbrc	r24, 1
    448c:	e5 c0       	rjmp	.+458    	; 0x4658 <moveMario+0x29c>
    448e:	10 92 72 04 	sts	0x0472, r1
    4492:	10 92 52 01 	sts	0x0152, r1
    4496:	a0 e0       	ldi	r26, 0x00	; 0
    4498:	a0 93 56 01 	sts	0x0156, r26
    449c:	87 ff       	sbrs	r24, 7
    449e:	af cf       	rjmp	.-162    	; 0x43fe <moveMario+0x42>
    44a0:	80 91 54 01 	lds	r24, 0x0154
    44a4:	88 23       	and	r24, r24
    44a6:	09 f0       	breq	.+2      	; 0x44aa <moveMario+0xee>
    44a8:	ac cf       	rjmp	.-168    	; 0x4402 <moveMario+0x46>
    44aa:	80 91 57 01 	lds	r24, 0x0157
    44ae:	18 16       	cp	r1, r24
    44b0:	0c f0       	brlt	.+2      	; 0x44b4 <moveMario+0xf8>
    44b2:	f3 c0       	rjmp	.+486    	; 0x469a <moveMario+0x2de>
    44b4:	b8 2f       	mov	r27, r24
    44b6:	65 e0       	ldi	r22, 0x05	; 5
    44b8:	0e 94 38 2d 	call	0x5a70	; 0x5a70 <__divmodqi4>
    44bc:	91 30       	cpi	r25, 0x01	; 1
    44be:	09 f0       	breq	.+2      	; 0x44c2 <moveMario+0x106>
    44c0:	ac cf       	rjmp	.-168    	; 0x441a <moveMario+0x5e>
    44c2:	40 91 7f 04 	lds	r20, 0x047F
    44c6:	44 23       	and	r20, r20
    44c8:	09 f4       	brne	.+2      	; 0x44cc <moveMario+0x110>
    44ca:	a7 cf       	rjmp	.-178    	; 0x441a <moveMario+0x5e>
    44cc:	60 91 7e 04 	lds	r22, 0x047E
    44d0:	70 e0       	ldi	r23, 0x00	; 0
    44d2:	fb 01       	movw	r30, r22
    44d4:	e8 59       	subi	r30, 0x98	; 152
    44d6:	fe 4f       	sbci	r31, 0xFE	; 254
    44d8:	50 81       	ld	r21, Z
    44da:	c4 2f       	mov	r28, r20
    44dc:	d0 e0       	ldi	r29, 0x00	; 0
    44de:	8e 01       	movw	r16, r28
    44e0:	01 50       	subi	r16, 0x01	; 1
    44e2:	10 40       	sbci	r17, 0x00	; 0
    44e4:	20 e8       	ldi	r18, 0x80	; 128
    44e6:	30 e0       	ldi	r19, 0x00	; 0
    44e8:	00 2e       	mov	r0, r16
    44ea:	02 c0       	rjmp	.+4      	; 0x44f0 <moveMario+0x134>
    44ec:	35 95       	asr	r19
    44ee:	27 95       	ror	r18
    44f0:	0a 94       	dec	r0
    44f2:	e2 f7       	brpl	.-8      	; 0x44ec <moveMario+0x130>
    44f4:	85 2f       	mov	r24, r21
    44f6:	90 e0       	ldi	r25, 0x00	; 0
    44f8:	82 23       	and	r24, r18
    44fa:	93 23       	and	r25, r19
    44fc:	00 97       	sbiw	r24, 0x00	; 0
    44fe:	09 f4       	brne	.+2      	; 0x4502 <moveMario+0x146>
    4500:	bc c1       	rjmp	.+888    	; 0x487a <moveMario+0x4be>
    4502:	80 91 67 01 	lds	r24, 0x0167
    4506:	83 30       	cpi	r24, 0x03	; 3
    4508:	09 f4       	brne	.+2      	; 0x450c <moveMario+0x150>
    450a:	b7 c1       	rjmp	.+878    	; 0x487a <moveMario+0x4be>
    450c:	84 30       	cpi	r24, 0x04	; 4
    450e:	09 f4       	brne	.+2      	; 0x4512 <moveMario+0x156>
    4510:	27 c2       	rjmp	.+1102   	; 0x4960 <moveMario+0x5a4>
    4512:	20 95       	com	r18
    4514:	25 23       	and	r18, r21
    4516:	20 83       	st	Z, r18
    4518:	50 91 f4 00 	lds	r21, 0x00F4
    451c:	65 1b       	sub	r22, r21
    451e:	71 09       	sbc	r23, r1
    4520:	fb 01       	movw	r30, r22
    4522:	ee 0f       	add	r30, r30
    4524:	ff 1f       	adc	r31, r31
    4526:	e6 0f       	add	r30, r22
    4528:	f7 1f       	adc	r31, r23
    452a:	c8 01       	movw	r24, r16
    452c:	88 0f       	add	r24, r24
    452e:	99 1f       	adc	r25, r25
    4530:	80 0f       	add	r24, r16
    4532:	91 1f       	adc	r25, r17
    4534:	88 0f       	add	r24, r24
    4536:	99 1f       	adc	r25, r25
    4538:	88 0f       	add	r24, r24
    453a:	99 1f       	adc	r25, r25
    453c:	88 0f       	add	r24, r24
    453e:	99 1f       	adc	r25, r25
    4540:	e8 0f       	add	r30, r24
    4542:	f9 1f       	adc	r31, r25
    4544:	e6 5a       	subi	r30, 0xA6	; 166
    4546:	fc 4f       	sbci	r31, 0xFC	; 252
    4548:	10 82       	st	Z, r1
    454a:	11 82       	std	Z+1, r1	; 0x01
    454c:	12 82       	std	Z+2, r1	; 0x02
    454e:	bf ef       	ldi	r27, 0xFF	; 255
    4550:	b0 93 57 01 	sts	0x0157, r27
    4554:	40 91 7e 04 	lds	r20, 0x047E
    4558:	af 30       	cpi	r26, 0x0F	; 15
    455a:	0c f0       	brlt	.+2      	; 0x455e <moveMario+0x1a2>
    455c:	68 cf       	rjmp	.-304    	; 0x442e <moveMario+0x72>
    455e:	a2 3f       	cpi	r26, 0xF2	; 242
    4560:	0c f0       	brlt	.+2      	; 0x4564 <moveMario+0x1a8>
    4562:	7e cf       	rjmp	.-260    	; 0x4460 <moveMario+0xa4>
    4564:	54 17       	cp	r21, r20
    4566:	08 f0       	brcs	.+2      	; 0x456a <moveMario+0x1ae>
    4568:	91 c0       	rjmp	.+290    	; 0x468c <moveMario+0x2d0>
    456a:	64 2f       	mov	r22, r20
    456c:	70 e0       	ldi	r23, 0x00	; 0
    456e:	b0 91 7f 04 	lds	r27, 0x047F
    4572:	cb 2f       	mov	r28, r27
    4574:	d0 e0       	ldi	r29, 0x00	; 0
    4576:	fb 01       	movw	r30, r22
    4578:	e9 59       	subi	r30, 0x99	; 153
    457a:	fe 4f       	sbci	r31, 0xFE	; 254
    457c:	80 81       	ld	r24, Z
    457e:	90 e0       	ldi	r25, 0x00	; 0
    4580:	20 e8       	ldi	r18, 0x80	; 128
    4582:	30 e0       	ldi	r19, 0x00	; 0
    4584:	02 c0       	rjmp	.+4      	; 0x458a <moveMario+0x1ce>
    4586:	35 95       	asr	r19
    4588:	27 95       	ror	r18
    458a:	ba 95       	dec	r27
    458c:	e2 f7       	brpl	.-8      	; 0x4586 <moveMario+0x1ca>
    458e:	82 23       	and	r24, r18
    4590:	93 23       	and	r25, r19
    4592:	00 97       	sbiw	r24, 0x00	; 0
    4594:	09 f0       	breq	.+2      	; 0x4598 <moveMario+0x1dc>
    4596:	7a c0       	rjmp	.+244    	; 0x468c <moveMario+0x2d0>
    4598:	44 23       	and	r20, r20
    459a:	09 f4       	brne	.+2      	; 0x459e <moveMario+0x1e2>
    459c:	77 c0       	rjmp	.+238    	; 0x468c <moveMario+0x2d0>
    459e:	05 2f       	mov	r16, r21
    45a0:	10 e0       	ldi	r17, 0x00	; 0
    45a2:	cb 01       	movw	r24, r22
    45a4:	80 1b       	sub	r24, r16
    45a6:	91 0b       	sbc	r25, r17
    45a8:	fc 01       	movw	r30, r24
    45aa:	ee 0f       	add	r30, r30
    45ac:	ff 1f       	adc	r31, r31
    45ae:	e8 0f       	add	r30, r24
    45b0:	f9 1f       	adc	r31, r25
    45b2:	9e 01       	movw	r18, r28
    45b4:	22 0f       	add	r18, r18
    45b6:	33 1f       	adc	r19, r19
    45b8:	c9 01       	movw	r24, r18
    45ba:	8c 0f       	add	r24, r28
    45bc:	9d 1f       	adc	r25, r29
    45be:	88 0f       	add	r24, r24
    45c0:	99 1f       	adc	r25, r25
    45c2:	88 0f       	add	r24, r24
    45c4:	99 1f       	adc	r25, r25
    45c6:	88 0f       	add	r24, r24
    45c8:	99 1f       	adc	r25, r25
    45ca:	e8 0f       	add	r30, r24
    45cc:	f9 1f       	adc	r31, r25
    45ce:	e6 5a       	subi	r30, 0xA6	; 166
    45d0:	fc 4f       	sbci	r31, 0xFC	; 252
    45d2:	a3 e8       	ldi	r26, 0x83	; 131
    45d4:	b4 e0       	ldi	r27, 0x04	; 4
    45d6:	83 e0       	ldi	r24, 0x03	; 3
    45d8:	0d 90       	ld	r0, X+
    45da:	01 92       	st	Z+, r0
    45dc:	81 50       	subi	r24, 0x01	; 1
    45de:	e1 f7       	brne	.-8      	; 0x45d8 <moveMario+0x21c>
    45e0:	41 50       	subi	r20, 0x01	; 1
    45e2:	40 93 7e 04 	sts	0x047E, r20
    45e6:	10 92 56 01 	sts	0x0156, r1
    45ea:	64 2f       	mov	r22, r20
    45ec:	70 e0       	ldi	r23, 0x00	; 0
    45ee:	60 1b       	sub	r22, r16
    45f0:	71 0b       	sbc	r23, r17
    45f2:	8b 01       	movw	r16, r22
    45f4:	00 0f       	add	r16, r16
    45f6:	11 1f       	adc	r17, r17
    45f8:	f8 01       	movw	r30, r16
    45fa:	e6 0f       	add	r30, r22
    45fc:	f7 1f       	adc	r31, r23
    45fe:	c9 01       	movw	r24, r18
    4600:	8c 0f       	add	r24, r28
    4602:	9d 1f       	adc	r25, r29
    4604:	88 0f       	add	r24, r24
    4606:	99 1f       	adc	r25, r25
    4608:	88 0f       	add	r24, r24
    460a:	99 1f       	adc	r25, r25
    460c:	88 0f       	add	r24, r24
    460e:	99 1f       	adc	r25, r25
    4610:	e8 0f       	add	r30, r24
    4612:	f9 1f       	adc	r31, r25
    4614:	a3 e8       	ldi	r26, 0x83	; 131
    4616:	b4 e0       	ldi	r27, 0x04	; 4
    4618:	e6 5a       	subi	r30, 0xA6	; 166
    461a:	fc 4f       	sbci	r31, 0xFC	; 252
    461c:	83 e0       	ldi	r24, 0x03	; 3
    461e:	01 90       	ld	r0, Z+
    4620:	0d 92       	st	X+, r0
    4622:	81 50       	subi	r24, 0x01	; 1
    4624:	e1 f7       	brne	.-8      	; 0x461e <moveMario+0x262>
    4626:	f8 01       	movw	r30, r16
    4628:	e6 0f       	add	r30, r22
    462a:	f7 1f       	adc	r31, r23
    462c:	2c 0f       	add	r18, r28
    462e:	3d 1f       	adc	r19, r29
    4630:	22 0f       	add	r18, r18
    4632:	33 1f       	adc	r19, r19
    4634:	22 0f       	add	r18, r18
    4636:	33 1f       	adc	r19, r19
    4638:	22 0f       	add	r18, r18
    463a:	33 1f       	adc	r19, r19
    463c:	e2 0f       	add	r30, r18
    463e:	f3 1f       	adc	r31, r19
    4640:	e6 5a       	subi	r30, 0xA6	; 166
    4642:	fc 4f       	sbci	r31, 0xFC	; 252
    4644:	a0 e8       	ldi	r26, 0x80	; 128
    4646:	b4 e0       	ldi	r27, 0x04	; 4
    4648:	83 e0       	ldi	r24, 0x03	; 3
    464a:	0d 90       	ld	r0, X+
    464c:	01 92       	st	Z+, r0
    464e:	81 50       	subi	r24, 0x01	; 1
    4650:	e1 f7       	brne	.-8      	; 0x464a <moveMario+0x28e>
    4652:	40 91 7e 04 	lds	r20, 0x047E
    4656:	09 cf       	rjmp	.-494    	; 0x446a <moveMario+0xae>
    4658:	90 91 52 01 	lds	r25, 0x0152
    465c:	99 23       	and	r25, r25
    465e:	31 f4       	brne	.+12     	; 0x466c <moveMario+0x2b0>
    4660:	91 e0       	ldi	r25, 0x01	; 1
    4662:	90 93 52 01 	sts	0x0152, r25
    4666:	91 ef       	ldi	r25, 0xF1	; 241
    4668:	90 93 56 01 	sts	0x0156, r25
    466c:	86 ff       	sbrs	r24, 6
    466e:	a0 c0       	rjmp	.+320    	; 0x47b0 <moveMario+0x3f4>
    4670:	9e ef       	ldi	r25, 0xFE	; 254
    4672:	90 93 72 04 	sts	0x0472, r25
    4676:	a0 91 56 01 	lds	r26, 0x0156
    467a:	a2 50       	subi	r26, 0x02	; 2
    467c:	0d cf       	rjmp	.-486    	; 0x4498 <moveMario+0xdc>
    467e:	91 e0       	ldi	r25, 0x01	; 1
    4680:	90 93 72 04 	sts	0x0472, r25
    4684:	a0 91 56 01 	lds	r26, 0x0156
    4688:	af 5f       	subi	r26, 0xFF	; 255
    468a:	06 cf       	rjmp	.-500    	; 0x4498 <moveMario+0xdc>
    468c:	a1 3f       	cpi	r26, 0xF1	; 241
    468e:	0c f0       	brlt	.+2      	; 0x4692 <moveMario+0x2d6>
    4690:	e7 ce       	rjmp	.-562    	; 0x4460 <moveMario+0xa4>
    4692:	81 ef       	ldi	r24, 0xF1	; 241
    4694:	80 93 56 01 	sts	0x0156, r24
    4698:	e8 ce       	rjmp	.-560    	; 0x446a <moveMario+0xae>
    469a:	40 91 7f 04 	lds	r20, 0x047F
    469e:	47 30       	cpi	r20, 0x07	; 7
    46a0:	08 f4       	brcc	.+2      	; 0x46a4 <moveMario+0x2e8>
    46a2:	41 c1       	rjmp	.+642    	; 0x4926 <moveMario+0x56a>
    46a4:	b8 2f       	mov	r27, r24
    46a6:	8c 3f       	cpi	r24, 0xFC	; 252
    46a8:	0c f0       	brlt	.+2      	; 0x46ac <moveMario+0x2f0>
    46aa:	79 c0       	rjmp	.+242    	; 0x479e <moveMario+0x3e2>
    46ac:	60 91 7f 04 	lds	r22, 0x047F
    46b0:	67 30       	cpi	r22, 0x07	; 7
    46b2:	08 f0       	brcs	.+2      	; 0x46b6 <moveMario+0x2fa>
    46b4:	71 c0       	rjmp	.+226    	; 0x4798 <moveMario+0x3dc>
    46b6:	c0 91 7e 04 	lds	r28, 0x047E
    46ba:	d0 e0       	ldi	r29, 0x00	; 0
    46bc:	06 2f       	mov	r16, r22
    46be:	10 e0       	ldi	r17, 0x00	; 0
    46c0:	98 01       	movw	r18, r16
    46c2:	2f 5f       	subi	r18, 0xFF	; 255
    46c4:	3f 4f       	sbci	r19, 0xFF	; 255
    46c6:	40 e8       	ldi	r20, 0x80	; 128
    46c8:	50 e0       	ldi	r21, 0x00	; 0
    46ca:	02 c0       	rjmp	.+4      	; 0x46d0 <moveMario+0x314>
    46cc:	55 95       	asr	r21
    46ce:	47 95       	ror	r20
    46d0:	2a 95       	dec	r18
    46d2:	e2 f7       	brpl	.-8      	; 0x46cc <moveMario+0x310>
    46d4:	fe 01       	movw	r30, r28
    46d6:	e8 59       	subi	r30, 0x98	; 152
    46d8:	fe 4f       	sbci	r31, 0xFE	; 254
    46da:	20 81       	ld	r18, Z
    46dc:	30 e0       	ldi	r19, 0x00	; 0
    46de:	42 23       	and	r20, r18
    46e0:	53 23       	and	r21, r19
    46e2:	41 15       	cp	r20, r1
    46e4:	51 05       	cpc	r21, r1
    46e6:	09 f0       	breq	.+2      	; 0x46ea <moveMario+0x32e>
    46e8:	5a c0       	rjmp	.+180    	; 0x479e <moveMario+0x3e2>
    46ea:	50 91 f4 00 	lds	r21, 0x00F4
    46ee:	c5 1b       	sub	r28, r21
    46f0:	d1 09       	sbc	r29, r1
    46f2:	9e 01       	movw	r18, r28
    46f4:	22 0f       	add	r18, r18
    46f6:	33 1f       	adc	r19, r19
    46f8:	f9 01       	movw	r30, r18
    46fa:	ec 0f       	add	r30, r28
    46fc:	fd 1f       	adc	r31, r29
    46fe:	c8 01       	movw	r24, r16
    4700:	88 0f       	add	r24, r24
    4702:	99 1f       	adc	r25, r25
    4704:	80 0f       	add	r24, r16
    4706:	91 1f       	adc	r25, r17
    4708:	88 0f       	add	r24, r24
    470a:	99 1f       	adc	r25, r25
    470c:	88 0f       	add	r24, r24
    470e:	99 1f       	adc	r25, r25
    4710:	88 0f       	add	r24, r24
    4712:	99 1f       	adc	r25, r25
    4714:	e8 0f       	add	r30, r24
    4716:	f9 1f       	adc	r31, r25
    4718:	e6 5a       	subi	r30, 0xA6	; 166
    471a:	fc 4f       	sbci	r31, 0xFC	; 252
    471c:	a3 e8       	ldi	r26, 0x83	; 131
    471e:	b4 e0       	ldi	r27, 0x04	; 4
    4720:	83 e0       	ldi	r24, 0x03	; 3
    4722:	0d 90       	ld	r0, X+
    4724:	01 92       	st	Z+, r0
    4726:	81 50       	subi	r24, 0x01	; 1
    4728:	e1 f7       	brne	.-8      	; 0x4722 <moveMario+0x366>
    472a:	6f 5f       	subi	r22, 0xFF	; 255
    472c:	60 93 7f 04 	sts	0x047F, r22
    4730:	70 e0       	ldi	r23, 0x00	; 0
    4732:	f9 01       	movw	r30, r18
    4734:	ec 0f       	add	r30, r28
    4736:	fd 1f       	adc	r31, r29
    4738:	8b 01       	movw	r16, r22
    473a:	00 0f       	add	r16, r16
    473c:	11 1f       	adc	r17, r17
    473e:	c8 01       	movw	r24, r16
    4740:	86 0f       	add	r24, r22
    4742:	97 1f       	adc	r25, r23
    4744:	88 0f       	add	r24, r24
    4746:	99 1f       	adc	r25, r25
    4748:	88 0f       	add	r24, r24
    474a:	99 1f       	adc	r25, r25
    474c:	88 0f       	add	r24, r24
    474e:	99 1f       	adc	r25, r25
    4750:	e8 0f       	add	r30, r24
    4752:	f9 1f       	adc	r31, r25
    4754:	a3 e8       	ldi	r26, 0x83	; 131
    4756:	b4 e0       	ldi	r27, 0x04	; 4
    4758:	e6 5a       	subi	r30, 0xA6	; 166
    475a:	fc 4f       	sbci	r31, 0xFC	; 252
    475c:	83 e0       	ldi	r24, 0x03	; 3
    475e:	01 90       	ld	r0, Z+
    4760:	0d 92       	st	X+, r0
    4762:	81 50       	subi	r24, 0x01	; 1
    4764:	e1 f7       	brne	.-8      	; 0x475e <moveMario+0x3a2>
    4766:	c2 0f       	add	r28, r18
    4768:	d3 1f       	adc	r29, r19
    476a:	60 0f       	add	r22, r16
    476c:	71 1f       	adc	r23, r17
    476e:	66 0f       	add	r22, r22
    4770:	77 1f       	adc	r23, r23
    4772:	66 0f       	add	r22, r22
    4774:	77 1f       	adc	r23, r23
    4776:	66 0f       	add	r22, r22
    4778:	77 1f       	adc	r23, r23
    477a:	c6 0f       	add	r28, r22
    477c:	d7 1f       	adc	r29, r23
    477e:	c6 5a       	subi	r28, 0xA6	; 166
    4780:	dc 4f       	sbci	r29, 0xFC	; 252
    4782:	e0 e8       	ldi	r30, 0x80	; 128
    4784:	f4 e0       	ldi	r31, 0x04	; 4
    4786:	83 e0       	ldi	r24, 0x03	; 3
    4788:	01 90       	ld	r0, Z+
    478a:	09 92       	st	Y+, r0
    478c:	81 50       	subi	r24, 0x01	; 1
    478e:	e1 f7       	brne	.-8      	; 0x4788 <moveMario+0x3cc>
    4790:	a0 91 56 01 	lds	r26, 0x0156
    4794:	bf ef       	ldi	r27, 0xFF	; 255
    4796:	dc ce       	rjmp	.-584    	; 0x4550 <moveMario+0x194>
    4798:	67 30       	cpi	r22, 0x07	; 7
    479a:	09 f4       	brne	.+2      	; 0x479e <moveMario+0x3e2>
    479c:	6b c0       	rjmp	.+214    	; 0x4874 <moveMario+0x4b8>
    479e:	8b 3f       	cpi	r24, 0xFB	; 251
    47a0:	0c f0       	brlt	.+2      	; 0x47a4 <moveMario+0x3e8>
    47a2:	3b ce       	rjmp	.-906    	; 0x441a <moveMario+0x5e>
    47a4:	a0 91 56 01 	lds	r26, 0x0156
    47a8:	ba ef       	ldi	r27, 0xFA	; 250
    47aa:	50 91 f4 00 	lds	r21, 0x00F4
    47ae:	38 ce       	rjmp	.-912    	; 0x4420 <moveMario+0x64>
    47b0:	9f ef       	ldi	r25, 0xFF	; 255
    47b2:	90 93 72 04 	sts	0x0472, r25
    47b6:	a0 91 56 01 	lds	r26, 0x0156
    47ba:	a1 50       	subi	r26, 0x01	; 1
    47bc:	6d ce       	rjmp	.-806    	; 0x4498 <moveMario+0xdc>
    47be:	05 2f       	mov	r16, r21
    47c0:	10 e0       	ldi	r17, 0x00	; 0
    47c2:	cb 01       	movw	r24, r22
    47c4:	80 1b       	sub	r24, r16
    47c6:	91 0b       	sbc	r25, r17
    47c8:	fc 01       	movw	r30, r24
    47ca:	ee 0f       	add	r30, r30
    47cc:	ff 1f       	adc	r31, r31
    47ce:	e8 0f       	add	r30, r24
    47d0:	f9 1f       	adc	r31, r25
    47d2:	be 01       	movw	r22, r28
    47d4:	66 0f       	add	r22, r22
    47d6:	77 1f       	adc	r23, r23
    47d8:	cb 01       	movw	r24, r22
    47da:	8c 0f       	add	r24, r28
    47dc:	9d 1f       	adc	r25, r29
    47de:	88 0f       	add	r24, r24
    47e0:	99 1f       	adc	r25, r25
    47e2:	88 0f       	add	r24, r24
    47e4:	99 1f       	adc	r25, r25
    47e6:	88 0f       	add	r24, r24
    47e8:	99 1f       	adc	r25, r25
    47ea:	e8 0f       	add	r30, r24
    47ec:	f9 1f       	adc	r31, r25
    47ee:	e6 5a       	subi	r30, 0xA6	; 166
    47f0:	fc 4f       	sbci	r31, 0xFC	; 252
    47f2:	a3 e8       	ldi	r26, 0x83	; 131
    47f4:	b4 e0       	ldi	r27, 0x04	; 4
    47f6:	83 e0       	ldi	r24, 0x03	; 3
    47f8:	0d 90       	ld	r0, X+
    47fa:	01 92       	st	Z+, r0
    47fc:	81 50       	subi	r24, 0x01	; 1
    47fe:	e1 f7       	brne	.-8      	; 0x47f8 <moveMario+0x43c>
    4800:	4f 5f       	subi	r20, 0xFF	; 255
    4802:	40 93 7e 04 	sts	0x047E, r20
    4806:	10 92 56 01 	sts	0x0156, r1
    480a:	24 2f       	mov	r18, r20
    480c:	30 e0       	ldi	r19, 0x00	; 0
    480e:	20 1b       	sub	r18, r16
    4810:	31 0b       	sbc	r19, r17
    4812:	89 01       	movw	r16, r18
    4814:	00 0f       	add	r16, r16
    4816:	11 1f       	adc	r17, r17
    4818:	f8 01       	movw	r30, r16
    481a:	e2 0f       	add	r30, r18
    481c:	f3 1f       	adc	r31, r19
    481e:	cb 01       	movw	r24, r22
    4820:	8c 0f       	add	r24, r28
    4822:	9d 1f       	adc	r25, r29
    4824:	88 0f       	add	r24, r24
    4826:	99 1f       	adc	r25, r25
    4828:	88 0f       	add	r24, r24
    482a:	99 1f       	adc	r25, r25
    482c:	88 0f       	add	r24, r24
    482e:	99 1f       	adc	r25, r25
    4830:	e8 0f       	add	r30, r24
    4832:	f9 1f       	adc	r31, r25
    4834:	a3 e8       	ldi	r26, 0x83	; 131
    4836:	b4 e0       	ldi	r27, 0x04	; 4
    4838:	e6 5a       	subi	r30, 0xA6	; 166
    483a:	fc 4f       	sbci	r31, 0xFC	; 252
    483c:	83 e0       	ldi	r24, 0x03	; 3
    483e:	01 90       	ld	r0, Z+
    4840:	0d 92       	st	X+, r0
    4842:	81 50       	subi	r24, 0x01	; 1
    4844:	e1 f7       	brne	.-8      	; 0x483e <moveMario+0x482>
    4846:	f8 01       	movw	r30, r16
    4848:	e2 0f       	add	r30, r18
    484a:	f3 1f       	adc	r31, r19
    484c:	c6 0f       	add	r28, r22
    484e:	d7 1f       	adc	r29, r23
    4850:	cc 0f       	add	r28, r28
    4852:	dd 1f       	adc	r29, r29
    4854:	cc 0f       	add	r28, r28
    4856:	dd 1f       	adc	r29, r29
    4858:	cc 0f       	add	r28, r28
    485a:	dd 1f       	adc	r29, r29
    485c:	ec 0f       	add	r30, r28
    485e:	fd 1f       	adc	r31, r29
    4860:	e6 5a       	subi	r30, 0xA6	; 166
    4862:	fc 4f       	sbci	r31, 0xFC	; 252
    4864:	a0 e8       	ldi	r26, 0x80	; 128
    4866:	b4 e0       	ldi	r27, 0x04	; 4
    4868:	83 e0       	ldi	r24, 0x03	; 3
    486a:	0d 90       	ld	r0, X+
    486c:	01 92       	st	Z+, r0
    486e:	81 50       	subi	r24, 0x01	; 1
    4870:	e1 f7       	brne	.-8      	; 0x486a <moveMario+0x4ae>
    4872:	ef ce       	rjmp	.-546    	; 0x4652 <moveMario+0x296>
    4874:	83 e0       	ldi	r24, 0x03	; 3
    4876:	80 83       	st	Z, r24
    4878:	01 ce       	rjmp	.-1022   	; 0x447c <moveMario+0xc0>
    487a:	50 91 f4 00 	lds	r21, 0x00F4
    487e:	65 1b       	sub	r22, r21
    4880:	71 09       	sbc	r23, r1
    4882:	9b 01       	movw	r18, r22
    4884:	22 0f       	add	r18, r18
    4886:	33 1f       	adc	r19, r19
    4888:	f9 01       	movw	r30, r18
    488a:	e6 0f       	add	r30, r22
    488c:	f7 1f       	adc	r31, r23
    488e:	ce 01       	movw	r24, r28
    4890:	88 0f       	add	r24, r24
    4892:	99 1f       	adc	r25, r25
    4894:	8c 0f       	add	r24, r28
    4896:	9d 1f       	adc	r25, r29
    4898:	88 0f       	add	r24, r24
    489a:	99 1f       	adc	r25, r25
    489c:	88 0f       	add	r24, r24
    489e:	99 1f       	adc	r25, r25
    48a0:	88 0f       	add	r24, r24
    48a2:	99 1f       	adc	r25, r25
    48a4:	e8 0f       	add	r30, r24
    48a6:	f9 1f       	adc	r31, r25
    48a8:	e6 5a       	subi	r30, 0xA6	; 166
    48aa:	fc 4f       	sbci	r31, 0xFC	; 252
    48ac:	c3 e8       	ldi	r28, 0x83	; 131
    48ae:	d4 e0       	ldi	r29, 0x04	; 4
    48b0:	83 e0       	ldi	r24, 0x03	; 3
    48b2:	09 90       	ld	r0, Y+
    48b4:	01 92       	st	Z+, r0
    48b6:	81 50       	subi	r24, 0x01	; 1
    48b8:	e1 f7       	brne	.-8      	; 0x48b2 <moveMario+0x4f6>
    48ba:	41 50       	subi	r20, 0x01	; 1
    48bc:	40 93 7f 04 	sts	0x047F, r20
    48c0:	04 2f       	mov	r16, r20
    48c2:	10 e0       	ldi	r17, 0x00	; 0
    48c4:	f9 01       	movw	r30, r18
    48c6:	e6 0f       	add	r30, r22
    48c8:	f7 1f       	adc	r31, r23
    48ca:	78 01       	movw	r14, r16
    48cc:	ee 0c       	add	r14, r14
    48ce:	ff 1c       	adc	r15, r15
    48d0:	c7 01       	movw	r24, r14
    48d2:	80 0f       	add	r24, r16
    48d4:	91 1f       	adc	r25, r17
    48d6:	88 0f       	add	r24, r24
    48d8:	99 1f       	adc	r25, r25
    48da:	88 0f       	add	r24, r24
    48dc:	99 1f       	adc	r25, r25
    48de:	88 0f       	add	r24, r24
    48e0:	99 1f       	adc	r25, r25
    48e2:	e8 0f       	add	r30, r24
    48e4:	f9 1f       	adc	r31, r25
    48e6:	c3 e8       	ldi	r28, 0x83	; 131
    48e8:	d4 e0       	ldi	r29, 0x04	; 4
    48ea:	e6 5a       	subi	r30, 0xA6	; 166
    48ec:	fc 4f       	sbci	r31, 0xFC	; 252
    48ee:	83 e0       	ldi	r24, 0x03	; 3
    48f0:	01 90       	ld	r0, Z+
    48f2:	09 92       	st	Y+, r0
    48f4:	81 50       	subi	r24, 0x01	; 1
    48f6:	e1 f7       	brne	.-8      	; 0x48f0 <moveMario+0x534>
    48f8:	f9 01       	movw	r30, r18
    48fa:	e6 0f       	add	r30, r22
    48fc:	f7 1f       	adc	r31, r23
    48fe:	0e 0d       	add	r16, r14
    4900:	1f 1d       	adc	r17, r15
    4902:	00 0f       	add	r16, r16
    4904:	11 1f       	adc	r17, r17
    4906:	00 0f       	add	r16, r16
    4908:	11 1f       	adc	r17, r17
    490a:	00 0f       	add	r16, r16
    490c:	11 1f       	adc	r17, r17
    490e:	e0 0f       	add	r30, r16
    4910:	f1 1f       	adc	r31, r17
    4912:	e6 5a       	subi	r30, 0xA6	; 166
    4914:	fc 4f       	sbci	r31, 0xFC	; 252
    4916:	c0 e8       	ldi	r28, 0x80	; 128
    4918:	d4 e0       	ldi	r29, 0x04	; 4
    491a:	83 e0       	ldi	r24, 0x03	; 3
    491c:	09 90       	ld	r0, Y+
    491e:	01 92       	st	Z+, r0
    4920:	81 50       	subi	r24, 0x01	; 1
    4922:	e1 f7       	brne	.-8      	; 0x491c <moveMario+0x560>
    4924:	7c cd       	rjmp	.-1288   	; 0x441e <moveMario+0x62>
    4926:	24 2f       	mov	r18, r20
    4928:	30 e0       	ldi	r19, 0x00	; 0
    492a:	2f 5f       	subi	r18, 0xFF	; 255
    492c:	3f 4f       	sbci	r19, 0xFF	; 255
    492e:	60 e8       	ldi	r22, 0x80	; 128
    4930:	70 e0       	ldi	r23, 0x00	; 0
    4932:	02 c0       	rjmp	.+4      	; 0x4938 <moveMario+0x57c>
    4934:	75 95       	asr	r23
    4936:	67 95       	ror	r22
    4938:	2a 95       	dec	r18
    493a:	e2 f7       	brpl	.-8      	; 0x4934 <moveMario+0x578>
    493c:	c0 91 7e 04 	lds	r28, 0x047E
    4940:	d0 e0       	ldi	r29, 0x00	; 0
    4942:	c8 59       	subi	r28, 0x98	; 152
    4944:	de 4f       	sbci	r29, 0xFE	; 254
    4946:	28 81       	ld	r18, Y
    4948:	30 e0       	ldi	r19, 0x00	; 0
    494a:	62 23       	and	r22, r18
    494c:	73 23       	and	r23, r19
    494e:	61 15       	cp	r22, r1
    4950:	71 05       	cpc	r23, r1
    4952:	09 f4       	brne	.+2      	; 0x4956 <moveMario+0x59a>
    4954:	a7 ce       	rjmp	.-690    	; 0x46a4 <moveMario+0x2e8>
    4956:	81 e0       	ldi	r24, 0x01	; 1
    4958:	80 93 54 01 	sts	0x0154, r24
    495c:	b0 e1       	ldi	r27, 0x10	; 16
    495e:	b3 cd       	rjmp	.-1178   	; 0x44c6 <moveMario+0x10a>
    4960:	50 91 f4 00 	lds	r21, 0x00F4
    4964:	bf ef       	ldi	r27, 0xFF	; 255
    4966:	f4 cd       	rjmp	.-1048   	; 0x4550 <moveMario+0x194>

00004968 <animate_title>:
    4968:	8f 92       	push	r8
    496a:	9f 92       	push	r9
    496c:	af 92       	push	r10
    496e:	bf 92       	push	r11
    4970:	cf 92       	push	r12
    4972:	df 92       	push	r13
    4974:	ef 92       	push	r14
    4976:	ff 92       	push	r15
    4978:	0f 93       	push	r16
    497a:	1f 93       	push	r17
    497c:	cf 93       	push	r28
    497e:	df 93       	push	r29
    4980:	40 91 4d 03 	lds	r20, 0x034D
    4984:	84 2f       	mov	r24, r20
    4986:	90 e0       	ldi	r25, 0x00	; 0
    4988:	8f 70       	andi	r24, 0x0F	; 15
    498a:	90 70       	andi	r25, 0x00	; 0
    498c:	00 97       	sbiw	r24, 0x00	; 0
    498e:	89 f0       	breq	.+34     	; 0x49b2 <animate_title+0x4a>
    4990:	4f 5f       	subi	r20, 0xFF	; 255
    4992:	4f 71       	andi	r20, 0x1F	; 31
    4994:	40 93 4d 03 	sts	0x034D, r20
    4998:	df 91       	pop	r29
    499a:	cf 91       	pop	r28
    499c:	1f 91       	pop	r17
    499e:	0f 91       	pop	r16
    49a0:	ff 90       	pop	r15
    49a2:	ef 90       	pop	r14
    49a4:	df 90       	pop	r13
    49a6:	cf 90       	pop	r12
    49a8:	bf 90       	pop	r11
    49aa:	af 90       	pop	r10
    49ac:	9f 90       	pop	r9
    49ae:	8f 90       	pop	r8
    49b0:	08 95       	ret
    49b2:	0e 94 cd 2d 	call	0x5b9a	; 0x5b9a <rand>
    49b6:	81 70       	andi	r24, 0x01	; 1
    49b8:	80 93 4e 03 	sts	0x034E, r24
    49bc:	0e 94 cd 2d 	call	0x5b9a	; 0x5b9a <rand>
    49c0:	81 70       	andi	r24, 0x01	; 1
    49c2:	80 93 4f 03 	sts	0x034F, r24
    49c6:	0e 94 cd 2d 	call	0x5b9a	; 0x5b9a <rand>
    49ca:	81 70       	andi	r24, 0x01	; 1
    49cc:	80 93 50 03 	sts	0x0350, r24
    49d0:	90 91 4f 03 	lds	r25, 0x034F
    49d4:	20 91 4e 03 	lds	r18, 0x034E
    49d8:	92 2b       	or	r25, r18
    49da:	98 2b       	or	r25, r24
    49dc:	09 f4       	brne	.+2      	; 0x49e0 <animate_title+0x78>
    49de:	22 c3       	rjmp	.+1604   	; 0x5024 <animate_title+0x6bc>
    49e0:	40 91 4d 03 	lds	r20, 0x034D
    49e4:	24 2f       	mov	r18, r20
    49e6:	22 95       	swap	r18
    49e8:	2f 70       	andi	r18, 0x0F	; 15
    49ea:	30 e0       	ldi	r19, 0x00	; 0
    49ec:	aa e5       	ldi	r26, 0x5A	; 90
    49ee:	b3 e0       	ldi	r27, 0x03	; 3
    49f0:	20 ff       	sbrs	r18, 0
    49f2:	d0 c2       	rjmp	.+1440   	; 0x4f94 <animate_title+0x62c>
    49f4:	ee e4       	ldi	r30, 0x4E	; 78
    49f6:	f3 e0       	ldi	r31, 0x03	; 3
    49f8:	83 e0       	ldi	r24, 0x03	; 3
    49fa:	01 90       	ld	r0, Z+
    49fc:	0d 92       	st	X+, r0
    49fe:	81 50       	subi	r24, 0x01	; 1
    4a00:	e1 f7       	brne	.-8      	; 0x49fa <animate_title+0x92>
    4a02:	c9 01       	movw	r24, r18
    4a04:	01 96       	adiw	r24, 0x01	; 1
    4a06:	bc 01       	movw	r22, r24
    4a08:	61 70       	andi	r22, 0x01	; 1
    4a0a:	70 70       	andi	r23, 0x00	; 0
    4a0c:	ad e5       	ldi	r26, 0x5D	; 93
    4a0e:	b3 e0       	ldi	r27, 0x03	; 3
    4a10:	80 ff       	sbrs	r24, 0
    4a12:	c8 c2       	rjmp	.+1424   	; 0x4fa4 <animate_title+0x63c>
    4a14:	ee e4       	ldi	r30, 0x4E	; 78
    4a16:	f3 e0       	ldi	r31, 0x03	; 3
    4a18:	83 e0       	ldi	r24, 0x03	; 3
    4a1a:	01 90       	ld	r0, Z+
    4a1c:	0d 92       	st	X+, r0
    4a1e:	81 50       	subi	r24, 0x01	; 1
    4a20:	e1 f7       	brne	.-8      	; 0x4a1a <animate_title+0xb2>
    4a22:	e9 01       	movw	r28, r18
    4a24:	c1 70       	andi	r28, 0x01	; 1
    4a26:	d0 70       	andi	r29, 0x00	; 0
    4a28:	e0 e6       	ldi	r30, 0x60	; 96
    4a2a:	f3 e0       	ldi	r31, 0x03	; 3
    4a2c:	20 ff       	sbrs	r18, 0
    4a2e:	c2 c2       	rjmp	.+1412   	; 0x4fb4 <animate_title+0x64c>
    4a30:	ae e4       	ldi	r26, 0x4E	; 78
    4a32:	b3 e0       	ldi	r27, 0x03	; 3
    4a34:	83 e0       	ldi	r24, 0x03	; 3
    4a36:	0d 90       	ld	r0, X+
    4a38:	01 92       	st	Z+, r0
    4a3a:	81 50       	subi	r24, 0x01	; 1
    4a3c:	e1 f7       	brne	.-8      	; 0x4a36 <animate_title+0xce>
    4a3e:	c9 01       	movw	r24, r18
    4a40:	03 96       	adiw	r24, 0x03	; 3
    4a42:	8c 01       	movw	r16, r24
    4a44:	01 70       	andi	r16, 0x01	; 1
    4a46:	10 70       	andi	r17, 0x00	; 0
    4a48:	e3 e6       	ldi	r30, 0x63	; 99
    4a4a:	f3 e0       	ldi	r31, 0x03	; 3
    4a4c:	80 ff       	sbrs	r24, 0
    4a4e:	ba c2       	rjmp	.+1396   	; 0x4fc4 <animate_title+0x65c>
    4a50:	ae e4       	ldi	r26, 0x4E	; 78
    4a52:	b3 e0       	ldi	r27, 0x03	; 3
    4a54:	83 e0       	ldi	r24, 0x03	; 3
    4a56:	0d 90       	ld	r0, X+
    4a58:	01 92       	st	Z+, r0
    4a5a:	81 50       	subi	r24, 0x01	; 1
    4a5c:	e1 f7       	brne	.-8      	; 0x4a56 <animate_title+0xee>
    4a5e:	e1 e0       	ldi	r30, 0x01	; 1
    4a60:	ee 2e       	mov	r14, r30
    4a62:	f1 2c       	mov	r15, r1
    4a64:	e2 22       	and	r14, r18
    4a66:	f3 22       	and	r15, r19
    4a68:	e6 e6       	ldi	r30, 0x66	; 102
    4a6a:	f3 e0       	ldi	r31, 0x03	; 3
    4a6c:	20 ff       	sbrs	r18, 0
    4a6e:	b2 c2       	rjmp	.+1380   	; 0x4fd4 <animate_title+0x66c>
    4a70:	ae e4       	ldi	r26, 0x4E	; 78
    4a72:	b3 e0       	ldi	r27, 0x03	; 3
    4a74:	83 e0       	ldi	r24, 0x03	; 3
    4a76:	0d 90       	ld	r0, X+
    4a78:	01 92       	st	Z+, r0
    4a7a:	81 50       	subi	r24, 0x01	; 1
    4a7c:	e1 f7       	brne	.-8      	; 0x4a76 <animate_title+0x10e>
    4a7e:	c9 01       	movw	r24, r18
    4a80:	05 96       	adiw	r24, 0x05	; 5
    4a82:	51 e0       	ldi	r21, 0x01	; 1
    4a84:	c5 2e       	mov	r12, r21
    4a86:	d1 2c       	mov	r13, r1
    4a88:	c8 22       	and	r12, r24
    4a8a:	d9 22       	and	r13, r25
    4a8c:	e9 e6       	ldi	r30, 0x69	; 105
    4a8e:	f3 e0       	ldi	r31, 0x03	; 3
    4a90:	80 ff       	sbrs	r24, 0
    4a92:	a8 c2       	rjmp	.+1360   	; 0x4fe4 <animate_title+0x67c>
    4a94:	ae e4       	ldi	r26, 0x4E	; 78
    4a96:	b3 e0       	ldi	r27, 0x03	; 3
    4a98:	83 e0       	ldi	r24, 0x03	; 3
    4a9a:	0d 90       	ld	r0, X+
    4a9c:	01 92       	st	Z+, r0
    4a9e:	81 50       	subi	r24, 0x01	; 1
    4aa0:	e1 f7       	brne	.-8      	; 0x4a9a <animate_title+0x132>
    4aa2:	b1 e0       	ldi	r27, 0x01	; 1
    4aa4:	ab 2e       	mov	r10, r27
    4aa6:	b1 2c       	mov	r11, r1
    4aa8:	a2 22       	and	r10, r18
    4aaa:	b3 22       	and	r11, r19
    4aac:	ec e6       	ldi	r30, 0x6C	; 108
    4aae:	f3 e0       	ldi	r31, 0x03	; 3
    4ab0:	20 ff       	sbrs	r18, 0
    4ab2:	a0 c2       	rjmp	.+1344   	; 0x4ff4 <animate_title+0x68c>
    4ab4:	ae e4       	ldi	r26, 0x4E	; 78
    4ab6:	b3 e0       	ldi	r27, 0x03	; 3
    4ab8:	83 e0       	ldi	r24, 0x03	; 3
    4aba:	0d 90       	ld	r0, X+
    4abc:	01 92       	st	Z+, r0
    4abe:	81 50       	subi	r24, 0x01	; 1
    4ac0:	e1 f7       	brne	.-8      	; 0x4aba <animate_title+0x152>
    4ac2:	c9 01       	movw	r24, r18
    4ac4:	07 96       	adiw	r24, 0x07	; 7
    4ac6:	a1 e0       	ldi	r26, 0x01	; 1
    4ac8:	8a 2e       	mov	r8, r26
    4aca:	91 2c       	mov	r9, r1
    4acc:	88 22       	and	r8, r24
    4ace:	99 22       	and	r9, r25
    4ad0:	ef e6       	ldi	r30, 0x6F	; 111
    4ad2:	f3 e0       	ldi	r31, 0x03	; 3
    4ad4:	80 ff       	sbrs	r24, 0
    4ad6:	96 c2       	rjmp	.+1324   	; 0x5004 <animate_title+0x69c>
    4ad8:	ae e4       	ldi	r26, 0x4E	; 78
    4ada:	b3 e0       	ldi	r27, 0x03	; 3
    4adc:	83 e0       	ldi	r24, 0x03	; 3
    4ade:	0d 90       	ld	r0, X+
    4ae0:	01 92       	st	Z+, r0
    4ae2:	81 50       	subi	r24, 0x01	; 1
    4ae4:	e1 f7       	brne	.-8      	; 0x4ade <animate_title+0x176>
    4ae6:	e2 e7       	ldi	r30, 0x72	; 114
    4ae8:	f3 e0       	ldi	r31, 0x03	; 3
    4aea:	61 15       	cp	r22, r1
    4aec:	71 05       	cpc	r23, r1
    4aee:	09 f4       	brne	.+2      	; 0x4af2 <animate_title+0x18a>
    4af0:	91 c2       	rjmp	.+1314   	; 0x5014 <animate_title+0x6ac>
    4af2:	ae e4       	ldi	r26, 0x4E	; 78
    4af4:	b3 e0       	ldi	r27, 0x03	; 3
    4af6:	83 e0       	ldi	r24, 0x03	; 3
    4af8:	0d 90       	ld	r0, X+
    4afa:	01 92       	st	Z+, r0
    4afc:	81 50       	subi	r24, 0x01	; 1
    4afe:	e1 f7       	brne	.-8      	; 0x4af8 <animate_title+0x190>
    4b00:	e5 e7       	ldi	r30, 0x75	; 117
    4b02:	f3 e0       	ldi	r31, 0x03	; 3
    4b04:	aa e4       	ldi	r26, 0x4A	; 74
    4b06:	b1 e0       	ldi	r27, 0x01	; 1
    4b08:	83 e0       	ldi	r24, 0x03	; 3
    4b0a:	0d 90       	ld	r0, X+
    4b0c:	01 92       	st	Z+, r0
    4b0e:	81 50       	subi	r24, 0x01	; 1
    4b10:	e1 f7       	brne	.-8      	; 0x4b0a <animate_title+0x1a2>
    4b12:	e8 e7       	ldi	r30, 0x78	; 120
    4b14:	f3 e0       	ldi	r31, 0x03	; 3
    4b16:	aa e4       	ldi	r26, 0x4A	; 74
    4b18:	b1 e0       	ldi	r27, 0x01	; 1
    4b1a:	83 e0       	ldi	r24, 0x03	; 3
    4b1c:	0d 90       	ld	r0, X+
    4b1e:	01 92       	st	Z+, r0
    4b20:	81 50       	subi	r24, 0x01	; 1
    4b22:	e1 f7       	brne	.-8      	; 0x4b1c <animate_title+0x1b4>
    4b24:	eb e7       	ldi	r30, 0x7B	; 123
    4b26:	f3 e0       	ldi	r31, 0x03	; 3
    4b28:	aa e4       	ldi	r26, 0x4A	; 74
    4b2a:	b1 e0       	ldi	r27, 0x01	; 1
    4b2c:	83 e0       	ldi	r24, 0x03	; 3
    4b2e:	0d 90       	ld	r0, X+
    4b30:	01 92       	st	Z+, r0
    4b32:	81 50       	subi	r24, 0x01	; 1
    4b34:	e1 f7       	brne	.-8      	; 0x4b2e <animate_title+0x1c6>
    4b36:	ee e7       	ldi	r30, 0x7E	; 126
    4b38:	f3 e0       	ldi	r31, 0x03	; 3
    4b3a:	aa e4       	ldi	r26, 0x4A	; 74
    4b3c:	b1 e0       	ldi	r27, 0x01	; 1
    4b3e:	83 e0       	ldi	r24, 0x03	; 3
    4b40:	0d 90       	ld	r0, X+
    4b42:	01 92       	st	Z+, r0
    4b44:	81 50       	subi	r24, 0x01	; 1
    4b46:	e1 f7       	brne	.-8      	; 0x4b40 <animate_title+0x1d8>
    4b48:	e1 e8       	ldi	r30, 0x81	; 129
    4b4a:	f3 e0       	ldi	r31, 0x03	; 3
    4b4c:	aa e4       	ldi	r26, 0x4A	; 74
    4b4e:	b1 e0       	ldi	r27, 0x01	; 1
    4b50:	83 e0       	ldi	r24, 0x03	; 3
    4b52:	0d 90       	ld	r0, X+
    4b54:	01 92       	st	Z+, r0
    4b56:	81 50       	subi	r24, 0x01	; 1
    4b58:	e1 f7       	brne	.-8      	; 0x4b52 <animate_title+0x1ea>
    4b5a:	e4 e8       	ldi	r30, 0x84	; 132
    4b5c:	f3 e0       	ldi	r31, 0x03	; 3
    4b5e:	aa e4       	ldi	r26, 0x4A	; 74
    4b60:	b1 e0       	ldi	r27, 0x01	; 1
    4b62:	83 e0       	ldi	r24, 0x03	; 3
    4b64:	0d 90       	ld	r0, X+
    4b66:	01 92       	st	Z+, r0
    4b68:	81 50       	subi	r24, 0x01	; 1
    4b6a:	e1 f7       	brne	.-8      	; 0x4b64 <animate_title+0x1fc>
    4b6c:	b9 01       	movw	r22, r18
    4b6e:	61 70       	andi	r22, 0x01	; 1
    4b70:	70 70       	andi	r23, 0x00	; 0
    4b72:	e7 e8       	ldi	r30, 0x87	; 135
    4b74:	f3 e0       	ldi	r31, 0x03	; 3
    4b76:	20 ff       	sbrs	r18, 0
    4b78:	69 c2       	rjmp	.+1234   	; 0x504c <animate_title+0x6e4>
    4b7a:	ae e4       	ldi	r26, 0x4E	; 78
    4b7c:	b3 e0       	ldi	r27, 0x03	; 3
    4b7e:	83 e0       	ldi	r24, 0x03	; 3
    4b80:	0d 90       	ld	r0, X+
    4b82:	01 92       	st	Z+, r0
    4b84:	81 50       	subi	r24, 0x01	; 1
    4b86:	e1 f7       	brne	.-8      	; 0x4b80 <animate_title+0x218>
    4b88:	ea e8       	ldi	r30, 0x8A	; 138
    4b8a:	f3 e0       	ldi	r31, 0x03	; 3
    4b8c:	20 97       	sbiw	r28, 0x00	; 0
    4b8e:	09 f4       	brne	.+2      	; 0x4b92 <animate_title+0x22a>
    4b90:	55 c2       	rjmp	.+1194   	; 0x503c <animate_title+0x6d4>
    4b92:	ae e4       	ldi	r26, 0x4E	; 78
    4b94:	b3 e0       	ldi	r27, 0x03	; 3
    4b96:	83 e0       	ldi	r24, 0x03	; 3
    4b98:	0d 90       	ld	r0, X+
    4b9a:	01 92       	st	Z+, r0
    4b9c:	81 50       	subi	r24, 0x01	; 1
    4b9e:	e1 f7       	brne	.-8      	; 0x4b98 <animate_title+0x230>
    4ba0:	ed e8       	ldi	r30, 0x8D	; 141
    4ba2:	f3 e0       	ldi	r31, 0x03	; 3
    4ba4:	aa e4       	ldi	r26, 0x4A	; 74
    4ba6:	b1 e0       	ldi	r27, 0x01	; 1
    4ba8:	83 e0       	ldi	r24, 0x03	; 3
    4baa:	0d 90       	ld	r0, X+
    4bac:	01 92       	st	Z+, r0
    4bae:	81 50       	subi	r24, 0x01	; 1
    4bb0:	e1 f7       	brne	.-8      	; 0x4baa <animate_title+0x242>
    4bb2:	e0 e9       	ldi	r30, 0x90	; 144
    4bb4:	f3 e0       	ldi	r31, 0x03	; 3
    4bb6:	aa e4       	ldi	r26, 0x4A	; 74
    4bb8:	b1 e0       	ldi	r27, 0x01	; 1
    4bba:	83 e0       	ldi	r24, 0x03	; 3
    4bbc:	0d 90       	ld	r0, X+
    4bbe:	01 92       	st	Z+, r0
    4bc0:	81 50       	subi	r24, 0x01	; 1
    4bc2:	e1 f7       	brne	.-8      	; 0x4bbc <animate_title+0x254>
    4bc4:	e3 e9       	ldi	r30, 0x93	; 147
    4bc6:	f3 e0       	ldi	r31, 0x03	; 3
    4bc8:	aa e4       	ldi	r26, 0x4A	; 74
    4bca:	b1 e0       	ldi	r27, 0x01	; 1
    4bcc:	83 e0       	ldi	r24, 0x03	; 3
    4bce:	0d 90       	ld	r0, X+
    4bd0:	01 92       	st	Z+, r0
    4bd2:	81 50       	subi	r24, 0x01	; 1
    4bd4:	e1 f7       	brne	.-8      	; 0x4bce <animate_title+0x266>
    4bd6:	e6 e9       	ldi	r30, 0x96	; 150
    4bd8:	f3 e0       	ldi	r31, 0x03	; 3
    4bda:	aa e4       	ldi	r26, 0x4A	; 74
    4bdc:	b1 e0       	ldi	r27, 0x01	; 1
    4bde:	83 e0       	ldi	r24, 0x03	; 3
    4be0:	0d 90       	ld	r0, X+
    4be2:	01 92       	st	Z+, r0
    4be4:	81 50       	subi	r24, 0x01	; 1
    4be6:	e1 f7       	brne	.-8      	; 0x4be0 <animate_title+0x278>
    4be8:	e9 e9       	ldi	r30, 0x99	; 153
    4bea:	f3 e0       	ldi	r31, 0x03	; 3
    4bec:	aa e4       	ldi	r26, 0x4A	; 74
    4bee:	b1 e0       	ldi	r27, 0x01	; 1
    4bf0:	83 e0       	ldi	r24, 0x03	; 3
    4bf2:	0d 90       	ld	r0, X+
    4bf4:	01 92       	st	Z+, r0
    4bf6:	81 50       	subi	r24, 0x01	; 1
    4bf8:	e1 f7       	brne	.-8      	; 0x4bf2 <animate_title+0x28a>
    4bfa:	ec e9       	ldi	r30, 0x9C	; 156
    4bfc:	f3 e0       	ldi	r31, 0x03	; 3
    4bfe:	aa e4       	ldi	r26, 0x4A	; 74
    4c00:	b1 e0       	ldi	r27, 0x01	; 1
    4c02:	83 e0       	ldi	r24, 0x03	; 3
    4c04:	0d 90       	ld	r0, X+
    4c06:	01 92       	st	Z+, r0
    4c08:	81 50       	subi	r24, 0x01	; 1
    4c0a:	e1 f7       	brne	.-8      	; 0x4c04 <animate_title+0x29c>
    4c0c:	c9 01       	movw	r24, r18
    4c0e:	09 96       	adiw	r24, 0x09	; 9
    4c10:	ec 01       	movw	r28, r24
    4c12:	c1 70       	andi	r28, 0x01	; 1
    4c14:	d0 70       	andi	r29, 0x00	; 0
    4c16:	ef e9       	ldi	r30, 0x9F	; 159
    4c18:	f3 e0       	ldi	r31, 0x03	; 3
    4c1a:	80 ff       	sbrs	r24, 0
    4c1c:	27 c2       	rjmp	.+1102   	; 0x506c <animate_title+0x704>
    4c1e:	ae e4       	ldi	r26, 0x4E	; 78
    4c20:	b3 e0       	ldi	r27, 0x03	; 3
    4c22:	83 e0       	ldi	r24, 0x03	; 3
    4c24:	0d 90       	ld	r0, X+
    4c26:	01 92       	st	Z+, r0
    4c28:	81 50       	subi	r24, 0x01	; 1
    4c2a:	e1 f7       	brne	.-8      	; 0x4c24 <animate_title+0x2bc>
    4c2c:	e2 ea       	ldi	r30, 0xA2	; 162
    4c2e:	f3 e0       	ldi	r31, 0x03	; 3
    4c30:	01 15       	cp	r16, r1
    4c32:	11 05       	cpc	r17, r1
    4c34:	09 f4       	brne	.+2      	; 0x4c38 <animate_title+0x2d0>
    4c36:	12 c2       	rjmp	.+1060   	; 0x505c <animate_title+0x6f4>
    4c38:	ae e4       	ldi	r26, 0x4E	; 78
    4c3a:	b3 e0       	ldi	r27, 0x03	; 3
    4c3c:	83 e0       	ldi	r24, 0x03	; 3
    4c3e:	0d 90       	ld	r0, X+
    4c40:	01 92       	st	Z+, r0
    4c42:	81 50       	subi	r24, 0x01	; 1
    4c44:	e1 f7       	brne	.-8      	; 0x4c3e <animate_title+0x2d6>
    4c46:	e5 ea       	ldi	r30, 0xA5	; 165
    4c48:	f3 e0       	ldi	r31, 0x03	; 3
    4c4a:	aa e4       	ldi	r26, 0x4A	; 74
    4c4c:	b1 e0       	ldi	r27, 0x01	; 1
    4c4e:	83 e0       	ldi	r24, 0x03	; 3
    4c50:	0d 90       	ld	r0, X+
    4c52:	01 92       	st	Z+, r0
    4c54:	81 50       	subi	r24, 0x01	; 1
    4c56:	e1 f7       	brne	.-8      	; 0x4c50 <animate_title+0x2e8>
    4c58:	e8 ea       	ldi	r30, 0xA8	; 168
    4c5a:	f3 e0       	ldi	r31, 0x03	; 3
    4c5c:	aa e4       	ldi	r26, 0x4A	; 74
    4c5e:	b1 e0       	ldi	r27, 0x01	; 1
    4c60:	83 e0       	ldi	r24, 0x03	; 3
    4c62:	0d 90       	ld	r0, X+
    4c64:	01 92       	st	Z+, r0
    4c66:	81 50       	subi	r24, 0x01	; 1
    4c68:	e1 f7       	brne	.-8      	; 0x4c62 <animate_title+0x2fa>
    4c6a:	eb ea       	ldi	r30, 0xAB	; 171
    4c6c:	f3 e0       	ldi	r31, 0x03	; 3
    4c6e:	aa e4       	ldi	r26, 0x4A	; 74
    4c70:	b1 e0       	ldi	r27, 0x01	; 1
    4c72:	83 e0       	ldi	r24, 0x03	; 3
    4c74:	0d 90       	ld	r0, X+
    4c76:	01 92       	st	Z+, r0
    4c78:	81 50       	subi	r24, 0x01	; 1
    4c7a:	e1 f7       	brne	.-8      	; 0x4c74 <animate_title+0x30c>
    4c7c:	ee ea       	ldi	r30, 0xAE	; 174
    4c7e:	f3 e0       	ldi	r31, 0x03	; 3
    4c80:	aa e4       	ldi	r26, 0x4A	; 74
    4c82:	b1 e0       	ldi	r27, 0x01	; 1
    4c84:	83 e0       	ldi	r24, 0x03	; 3
    4c86:	0d 90       	ld	r0, X+
    4c88:	01 92       	st	Z+, r0
    4c8a:	81 50       	subi	r24, 0x01	; 1
    4c8c:	e1 f7       	brne	.-8      	; 0x4c86 <animate_title+0x31e>
    4c8e:	e1 eb       	ldi	r30, 0xB1	; 177
    4c90:	f3 e0       	ldi	r31, 0x03	; 3
    4c92:	aa e4       	ldi	r26, 0x4A	; 74
    4c94:	b1 e0       	ldi	r27, 0x01	; 1
    4c96:	83 e0       	ldi	r24, 0x03	; 3
    4c98:	0d 90       	ld	r0, X+
    4c9a:	01 92       	st	Z+, r0
    4c9c:	81 50       	subi	r24, 0x01	; 1
    4c9e:	e1 f7       	brne	.-8      	; 0x4c98 <animate_title+0x330>
    4ca0:	e4 eb       	ldi	r30, 0xB4	; 180
    4ca2:	f3 e0       	ldi	r31, 0x03	; 3
    4ca4:	aa e4       	ldi	r26, 0x4A	; 74
    4ca6:	b1 e0       	ldi	r27, 0x01	; 1
    4ca8:	83 e0       	ldi	r24, 0x03	; 3
    4caa:	0d 90       	ld	r0, X+
    4cac:	01 92       	st	Z+, r0
    4cae:	81 50       	subi	r24, 0x01	; 1
    4cb0:	e1 f7       	brne	.-8      	; 0x4caa <animate_title+0x342>
    4cb2:	89 01       	movw	r16, r18
    4cb4:	01 70       	andi	r16, 0x01	; 1
    4cb6:	10 70       	andi	r17, 0x00	; 0
    4cb8:	e7 eb       	ldi	r30, 0xB7	; 183
    4cba:	f3 e0       	ldi	r31, 0x03	; 3
    4cbc:	20 ff       	sbrs	r18, 0
    4cbe:	e6 c1       	rjmp	.+972    	; 0x508c <animate_title+0x724>
    4cc0:	ae e4       	ldi	r26, 0x4E	; 78
    4cc2:	b3 e0       	ldi	r27, 0x03	; 3
    4cc4:	83 e0       	ldi	r24, 0x03	; 3
    4cc6:	0d 90       	ld	r0, X+
    4cc8:	01 92       	st	Z+, r0
    4cca:	81 50       	subi	r24, 0x01	; 1
    4ccc:	e1 f7       	brne	.-8      	; 0x4cc6 <animate_title+0x35e>
    4cce:	ea eb       	ldi	r30, 0xBA	; 186
    4cd0:	f3 e0       	ldi	r31, 0x03	; 3
    4cd2:	e1 14       	cp	r14, r1
    4cd4:	f1 04       	cpc	r15, r1
    4cd6:	09 f4       	brne	.+2      	; 0x4cda <animate_title+0x372>
    4cd8:	d1 c1       	rjmp	.+930    	; 0x507c <animate_title+0x714>
    4cda:	ae e4       	ldi	r26, 0x4E	; 78
    4cdc:	b3 e0       	ldi	r27, 0x03	; 3
    4cde:	83 e0       	ldi	r24, 0x03	; 3
    4ce0:	0d 90       	ld	r0, X+
    4ce2:	01 92       	st	Z+, r0
    4ce4:	81 50       	subi	r24, 0x01	; 1
    4ce6:	e1 f7       	brne	.-8      	; 0x4ce0 <animate_title+0x378>
    4ce8:	ed eb       	ldi	r30, 0xBD	; 189
    4cea:	f3 e0       	ldi	r31, 0x03	; 3
    4cec:	aa e4       	ldi	r26, 0x4A	; 74
    4cee:	b1 e0       	ldi	r27, 0x01	; 1
    4cf0:	83 e0       	ldi	r24, 0x03	; 3
    4cf2:	0d 90       	ld	r0, X+
    4cf4:	01 92       	st	Z+, r0
    4cf6:	81 50       	subi	r24, 0x01	; 1
    4cf8:	e1 f7       	brne	.-8      	; 0x4cf2 <animate_title+0x38a>
    4cfa:	e0 ec       	ldi	r30, 0xC0	; 192
    4cfc:	f3 e0       	ldi	r31, 0x03	; 3
    4cfe:	aa e4       	ldi	r26, 0x4A	; 74
    4d00:	b1 e0       	ldi	r27, 0x01	; 1
    4d02:	83 e0       	ldi	r24, 0x03	; 3
    4d04:	0d 90       	ld	r0, X+
    4d06:	01 92       	st	Z+, r0
    4d08:	81 50       	subi	r24, 0x01	; 1
    4d0a:	e1 f7       	brne	.-8      	; 0x4d04 <animate_title+0x39c>
    4d0c:	e3 ec       	ldi	r30, 0xC3	; 195
    4d0e:	f3 e0       	ldi	r31, 0x03	; 3
    4d10:	aa e4       	ldi	r26, 0x4A	; 74
    4d12:	b1 e0       	ldi	r27, 0x01	; 1
    4d14:	83 e0       	ldi	r24, 0x03	; 3
    4d16:	0d 90       	ld	r0, X+
    4d18:	01 92       	st	Z+, r0
    4d1a:	81 50       	subi	r24, 0x01	; 1
    4d1c:	e1 f7       	brne	.-8      	; 0x4d16 <animate_title+0x3ae>
    4d1e:	e6 ec       	ldi	r30, 0xC6	; 198
    4d20:	f3 e0       	ldi	r31, 0x03	; 3
    4d22:	aa e4       	ldi	r26, 0x4A	; 74
    4d24:	b1 e0       	ldi	r27, 0x01	; 1
    4d26:	83 e0       	ldi	r24, 0x03	; 3
    4d28:	0d 90       	ld	r0, X+
    4d2a:	01 92       	st	Z+, r0
    4d2c:	81 50       	subi	r24, 0x01	; 1
    4d2e:	e1 f7       	brne	.-8      	; 0x4d28 <animate_title+0x3c0>
    4d30:	e9 ec       	ldi	r30, 0xC9	; 201
    4d32:	f3 e0       	ldi	r31, 0x03	; 3
    4d34:	aa e4       	ldi	r26, 0x4A	; 74
    4d36:	b1 e0       	ldi	r27, 0x01	; 1
    4d38:	83 e0       	ldi	r24, 0x03	; 3
    4d3a:	0d 90       	ld	r0, X+
    4d3c:	01 92       	st	Z+, r0
    4d3e:	81 50       	subi	r24, 0x01	; 1
    4d40:	e1 f7       	brne	.-8      	; 0x4d3a <animate_title+0x3d2>
    4d42:	ec ec       	ldi	r30, 0xCC	; 204
    4d44:	f3 e0       	ldi	r31, 0x03	; 3
    4d46:	aa e4       	ldi	r26, 0x4A	; 74
    4d48:	b1 e0       	ldi	r27, 0x01	; 1
    4d4a:	83 e0       	ldi	r24, 0x03	; 3
    4d4c:	0d 90       	ld	r0, X+
    4d4e:	01 92       	st	Z+, r0
    4d50:	81 50       	subi	r24, 0x01	; 1
    4d52:	e1 f7       	brne	.-8      	; 0x4d4c <animate_title+0x3e4>
    4d54:	c9 01       	movw	r24, r18
    4d56:	0b 96       	adiw	r24, 0x0b	; 11
    4d58:	f1 e0       	ldi	r31, 0x01	; 1
    4d5a:	ef 2e       	mov	r14, r31
    4d5c:	f1 2c       	mov	r15, r1
    4d5e:	e8 22       	and	r14, r24
    4d60:	f9 22       	and	r15, r25
    4d62:	ef ec       	ldi	r30, 0xCF	; 207
    4d64:	f3 e0       	ldi	r31, 0x03	; 3
    4d66:	80 ff       	sbrs	r24, 0
    4d68:	a1 c1       	rjmp	.+834    	; 0x50ac <animate_title+0x744>
    4d6a:	ae e4       	ldi	r26, 0x4E	; 78
    4d6c:	b3 e0       	ldi	r27, 0x03	; 3
    4d6e:	83 e0       	ldi	r24, 0x03	; 3
    4d70:	0d 90       	ld	r0, X+
    4d72:	01 92       	st	Z+, r0
    4d74:	81 50       	subi	r24, 0x01	; 1
    4d76:	e1 f7       	brne	.-8      	; 0x4d70 <animate_title+0x408>
    4d78:	e2 ed       	ldi	r30, 0xD2	; 210
    4d7a:	f3 e0       	ldi	r31, 0x03	; 3
    4d7c:	c1 14       	cp	r12, r1
    4d7e:	d1 04       	cpc	r13, r1
    4d80:	09 f4       	brne	.+2      	; 0x4d84 <animate_title+0x41c>
    4d82:	8c c1       	rjmp	.+792    	; 0x509c <animate_title+0x734>
    4d84:	ae e4       	ldi	r26, 0x4E	; 78
    4d86:	b3 e0       	ldi	r27, 0x03	; 3
    4d88:	83 e0       	ldi	r24, 0x03	; 3
    4d8a:	0d 90       	ld	r0, X+
    4d8c:	01 92       	st	Z+, r0
    4d8e:	81 50       	subi	r24, 0x01	; 1
    4d90:	e1 f7       	brne	.-8      	; 0x4d8a <animate_title+0x422>
    4d92:	e5 ed       	ldi	r30, 0xD5	; 213
    4d94:	f3 e0       	ldi	r31, 0x03	; 3
    4d96:	aa e4       	ldi	r26, 0x4A	; 74
    4d98:	b1 e0       	ldi	r27, 0x01	; 1
    4d9a:	83 e0       	ldi	r24, 0x03	; 3
    4d9c:	0d 90       	ld	r0, X+
    4d9e:	01 92       	st	Z+, r0
    4da0:	81 50       	subi	r24, 0x01	; 1
    4da2:	e1 f7       	brne	.-8      	; 0x4d9c <animate_title+0x434>
    4da4:	e8 ed       	ldi	r30, 0xD8	; 216
    4da6:	f3 e0       	ldi	r31, 0x03	; 3
    4da8:	aa e4       	ldi	r26, 0x4A	; 74
    4daa:	b1 e0       	ldi	r27, 0x01	; 1
    4dac:	83 e0       	ldi	r24, 0x03	; 3
    4dae:	0d 90       	ld	r0, X+
    4db0:	01 92       	st	Z+, r0
    4db2:	81 50       	subi	r24, 0x01	; 1
    4db4:	e1 f7       	brne	.-8      	; 0x4dae <animate_title+0x446>
    4db6:	eb ed       	ldi	r30, 0xDB	; 219
    4db8:	f3 e0       	ldi	r31, 0x03	; 3
    4dba:	aa e4       	ldi	r26, 0x4A	; 74
    4dbc:	b1 e0       	ldi	r27, 0x01	; 1
    4dbe:	83 e0       	ldi	r24, 0x03	; 3
    4dc0:	0d 90       	ld	r0, X+
    4dc2:	01 92       	st	Z+, r0
    4dc4:	81 50       	subi	r24, 0x01	; 1
    4dc6:	e1 f7       	brne	.-8      	; 0x4dc0 <animate_title+0x458>
    4dc8:	ee ed       	ldi	r30, 0xDE	; 222
    4dca:	f3 e0       	ldi	r31, 0x03	; 3
    4dcc:	aa e4       	ldi	r26, 0x4A	; 74
    4dce:	b1 e0       	ldi	r27, 0x01	; 1
    4dd0:	83 e0       	ldi	r24, 0x03	; 3
    4dd2:	0d 90       	ld	r0, X+
    4dd4:	01 92       	st	Z+, r0
    4dd6:	81 50       	subi	r24, 0x01	; 1
    4dd8:	e1 f7       	brne	.-8      	; 0x4dd2 <animate_title+0x46a>
    4dda:	e1 ee       	ldi	r30, 0xE1	; 225
    4ddc:	f3 e0       	ldi	r31, 0x03	; 3
    4dde:	aa e4       	ldi	r26, 0x4A	; 74
    4de0:	b1 e0       	ldi	r27, 0x01	; 1
    4de2:	83 e0       	ldi	r24, 0x03	; 3
    4de4:	0d 90       	ld	r0, X+
    4de6:	01 92       	st	Z+, r0
    4de8:	81 50       	subi	r24, 0x01	; 1
    4dea:	e1 f7       	brne	.-8      	; 0x4de4 <animate_title+0x47c>
    4dec:	e4 ee       	ldi	r30, 0xE4	; 228
    4dee:	f3 e0       	ldi	r31, 0x03	; 3
    4df0:	aa e4       	ldi	r26, 0x4A	; 74
    4df2:	b1 e0       	ldi	r27, 0x01	; 1
    4df4:	83 e0       	ldi	r24, 0x03	; 3
    4df6:	0d 90       	ld	r0, X+
    4df8:	01 92       	st	Z+, r0
    4dfa:	81 50       	subi	r24, 0x01	; 1
    4dfc:	e1 f7       	brne	.-8      	; 0x4df6 <animate_title+0x48e>
    4dfe:	e1 e0       	ldi	r30, 0x01	; 1
    4e00:	ce 2e       	mov	r12, r30
    4e02:	d1 2c       	mov	r13, r1
    4e04:	c2 22       	and	r12, r18
    4e06:	d3 22       	and	r13, r19
    4e08:	e7 ee       	ldi	r30, 0xE7	; 231
    4e0a:	f3 e0       	ldi	r31, 0x03	; 3
    4e0c:	20 ff       	sbrs	r18, 0
    4e0e:	56 c1       	rjmp	.+684    	; 0x50bc <animate_title+0x754>
    4e10:	ae e4       	ldi	r26, 0x4E	; 78
    4e12:	b3 e0       	ldi	r27, 0x03	; 3
    4e14:	83 e0       	ldi	r24, 0x03	; 3
    4e16:	0d 90       	ld	r0, X+
    4e18:	01 92       	st	Z+, r0
    4e1a:	81 50       	subi	r24, 0x01	; 1
    4e1c:	e1 f7       	brne	.-8      	; 0x4e16 <animate_title+0x4ae>
    4e1e:	ea ee       	ldi	r30, 0xEA	; 234
    4e20:	f3 e0       	ldi	r31, 0x03	; 3
    4e22:	a1 14       	cp	r10, r1
    4e24:	b1 04       	cpc	r11, r1
    4e26:	09 f4       	brne	.+2      	; 0x4e2a <animate_title+0x4c2>
    4e28:	51 c1       	rjmp	.+674    	; 0x50cc <animate_title+0x764>
    4e2a:	ae e4       	ldi	r26, 0x4E	; 78
    4e2c:	b3 e0       	ldi	r27, 0x03	; 3
    4e2e:	83 e0       	ldi	r24, 0x03	; 3
    4e30:	0d 90       	ld	r0, X+
    4e32:	01 92       	st	Z+, r0
    4e34:	81 50       	subi	r24, 0x01	; 1
    4e36:	e1 f7       	brne	.-8      	; 0x4e30 <animate_title+0x4c8>
    4e38:	ed ee       	ldi	r30, 0xED	; 237
    4e3a:	f3 e0       	ldi	r31, 0x03	; 3
    4e3c:	aa e4       	ldi	r26, 0x4A	; 74
    4e3e:	b1 e0       	ldi	r27, 0x01	; 1
    4e40:	83 e0       	ldi	r24, 0x03	; 3
    4e42:	0d 90       	ld	r0, X+
    4e44:	01 92       	st	Z+, r0
    4e46:	81 50       	subi	r24, 0x01	; 1
    4e48:	e1 f7       	brne	.-8      	; 0x4e42 <animate_title+0x4da>
    4e4a:	e0 ef       	ldi	r30, 0xF0	; 240
    4e4c:	f3 e0       	ldi	r31, 0x03	; 3
    4e4e:	aa e4       	ldi	r26, 0x4A	; 74
    4e50:	b1 e0       	ldi	r27, 0x01	; 1
    4e52:	83 e0       	ldi	r24, 0x03	; 3
    4e54:	0d 90       	ld	r0, X+
    4e56:	01 92       	st	Z+, r0
    4e58:	81 50       	subi	r24, 0x01	; 1
    4e5a:	e1 f7       	brne	.-8      	; 0x4e54 <animate_title+0x4ec>
    4e5c:	e3 ef       	ldi	r30, 0xF3	; 243
    4e5e:	f3 e0       	ldi	r31, 0x03	; 3
    4e60:	aa e4       	ldi	r26, 0x4A	; 74
    4e62:	b1 e0       	ldi	r27, 0x01	; 1
    4e64:	83 e0       	ldi	r24, 0x03	; 3
    4e66:	0d 90       	ld	r0, X+
    4e68:	01 92       	st	Z+, r0
    4e6a:	81 50       	subi	r24, 0x01	; 1
    4e6c:	e1 f7       	brne	.-8      	; 0x4e66 <animate_title+0x4fe>
    4e6e:	e6 ef       	ldi	r30, 0xF6	; 246
    4e70:	f3 e0       	ldi	r31, 0x03	; 3
    4e72:	aa e4       	ldi	r26, 0x4A	; 74
    4e74:	b1 e0       	ldi	r27, 0x01	; 1
    4e76:	83 e0       	ldi	r24, 0x03	; 3
    4e78:	0d 90       	ld	r0, X+
    4e7a:	01 92       	st	Z+, r0
    4e7c:	81 50       	subi	r24, 0x01	; 1
    4e7e:	e1 f7       	brne	.-8      	; 0x4e78 <animate_title+0x510>
    4e80:	e9 ef       	ldi	r30, 0xF9	; 249
    4e82:	f3 e0       	ldi	r31, 0x03	; 3
    4e84:	aa e4       	ldi	r26, 0x4A	; 74
    4e86:	b1 e0       	ldi	r27, 0x01	; 1
    4e88:	83 e0       	ldi	r24, 0x03	; 3
    4e8a:	0d 90       	ld	r0, X+
    4e8c:	01 92       	st	Z+, r0
    4e8e:	81 50       	subi	r24, 0x01	; 1
    4e90:	e1 f7       	brne	.-8      	; 0x4e8a <animate_title+0x522>
    4e92:	ec ef       	ldi	r30, 0xFC	; 252
    4e94:	f3 e0       	ldi	r31, 0x03	; 3
    4e96:	aa e4       	ldi	r26, 0x4A	; 74
    4e98:	b1 e0       	ldi	r27, 0x01	; 1
    4e9a:	83 e0       	ldi	r24, 0x03	; 3
    4e9c:	0d 90       	ld	r0, X+
    4e9e:	01 92       	st	Z+, r0
    4ea0:	81 50       	subi	r24, 0x01	; 1
    4ea2:	e1 f7       	brne	.-8      	; 0x4e9c <animate_title+0x534>
    4ea4:	c9 01       	movw	r24, r18
    4ea6:	0d 96       	adiw	r24, 0x0d	; 13
    4ea8:	51 e0       	ldi	r21, 0x01	; 1
    4eaa:	a5 2e       	mov	r10, r21
    4eac:	b1 2c       	mov	r11, r1
    4eae:	a8 22       	and	r10, r24
    4eb0:	b9 22       	and	r11, r25
    4eb2:	ef ef       	ldi	r30, 0xFF	; 255
    4eb4:	f3 e0       	ldi	r31, 0x03	; 3
    4eb6:	80 ff       	sbrs	r24, 0
    4eb8:	51 c1       	rjmp	.+674    	; 0x515c <animate_title+0x7f4>
    4eba:	ae e4       	ldi	r26, 0x4E	; 78
    4ebc:	b3 e0       	ldi	r27, 0x03	; 3
    4ebe:	83 e0       	ldi	r24, 0x03	; 3
    4ec0:	0d 90       	ld	r0, X+
    4ec2:	01 92       	st	Z+, r0
    4ec4:	81 50       	subi	r24, 0x01	; 1
    4ec6:	e1 f7       	brne	.-8      	; 0x4ec0 <animate_title+0x558>
    4ec8:	e2 e0       	ldi	r30, 0x02	; 2
    4eca:	f4 e0       	ldi	r31, 0x04	; 4
    4ecc:	81 14       	cp	r8, r1
    4ece:	91 04       	cpc	r9, r1
    4ed0:	09 f4       	brne	.+2      	; 0x4ed4 <animate_title+0x56c>
    4ed2:	1c c1       	rjmp	.+568    	; 0x510c <animate_title+0x7a4>
    4ed4:	ae e4       	ldi	r26, 0x4E	; 78
    4ed6:	b3 e0       	ldi	r27, 0x03	; 3
    4ed8:	83 e0       	ldi	r24, 0x03	; 3
    4eda:	0d 90       	ld	r0, X+
    4edc:	01 92       	st	Z+, r0
    4ede:	81 50       	subi	r24, 0x01	; 1
    4ee0:	e1 f7       	brne	.-8      	; 0x4eda <animate_title+0x572>
    4ee2:	e5 e0       	ldi	r30, 0x05	; 5
    4ee4:	f4 e0       	ldi	r31, 0x04	; 4
    4ee6:	61 15       	cp	r22, r1
    4ee8:	71 05       	cpc	r23, r1
    4eea:	09 f4       	brne	.+2      	; 0x4eee <animate_title+0x586>
    4eec:	07 c1       	rjmp	.+526    	; 0x50fc <animate_title+0x794>
    4eee:	ae e4       	ldi	r26, 0x4E	; 78
    4ef0:	b3 e0       	ldi	r27, 0x03	; 3
    4ef2:	83 e0       	ldi	r24, 0x03	; 3
    4ef4:	0d 90       	ld	r0, X+
    4ef6:	01 92       	st	Z+, r0
    4ef8:	81 50       	subi	r24, 0x01	; 1
    4efa:	e1 f7       	brne	.-8      	; 0x4ef4 <animate_title+0x58c>
    4efc:	e8 e0       	ldi	r30, 0x08	; 8
    4efe:	f4 e0       	ldi	r31, 0x04	; 4
    4f00:	20 97       	sbiw	r28, 0x00	; 0
    4f02:	09 f4       	brne	.+2      	; 0x4f06 <animate_title+0x59e>
    4f04:	f3 c0       	rjmp	.+486    	; 0x50ec <animate_title+0x784>
    4f06:	ae e4       	ldi	r26, 0x4E	; 78
    4f08:	b3 e0       	ldi	r27, 0x03	; 3
    4f0a:	83 e0       	ldi	r24, 0x03	; 3
    4f0c:	0d 90       	ld	r0, X+
    4f0e:	01 92       	st	Z+, r0
    4f10:	81 50       	subi	r24, 0x01	; 1
    4f12:	e1 f7       	brne	.-8      	; 0x4f0c <animate_title+0x5a4>
    4f14:	eb e0       	ldi	r30, 0x0B	; 11
    4f16:	f4 e0       	ldi	r31, 0x04	; 4
    4f18:	01 15       	cp	r16, r1
    4f1a:	11 05       	cpc	r17, r1
    4f1c:	09 f4       	brne	.+2      	; 0x4f20 <animate_title+0x5b8>
    4f1e:	06 c1       	rjmp	.+524    	; 0x512c <animate_title+0x7c4>
    4f20:	ae e4       	ldi	r26, 0x4E	; 78
    4f22:	b3 e0       	ldi	r27, 0x03	; 3
    4f24:	83 e0       	ldi	r24, 0x03	; 3
    4f26:	0d 90       	ld	r0, X+
    4f28:	01 92       	st	Z+, r0
    4f2a:	81 50       	subi	r24, 0x01	; 1
    4f2c:	e1 f7       	brne	.-8      	; 0x4f26 <animate_title+0x5be>
    4f2e:	ee e0       	ldi	r30, 0x0E	; 14
    4f30:	f4 e0       	ldi	r31, 0x04	; 4
    4f32:	e1 14       	cp	r14, r1
    4f34:	f1 04       	cpc	r15, r1
    4f36:	09 f4       	brne	.+2      	; 0x4f3a <animate_title+0x5d2>
    4f38:	f1 c0       	rjmp	.+482    	; 0x511c <animate_title+0x7b4>
    4f3a:	ae e4       	ldi	r26, 0x4E	; 78
    4f3c:	b3 e0       	ldi	r27, 0x03	; 3
    4f3e:	83 e0       	ldi	r24, 0x03	; 3
    4f40:	0d 90       	ld	r0, X+
    4f42:	01 92       	st	Z+, r0
    4f44:	81 50       	subi	r24, 0x01	; 1
    4f46:	e1 f7       	brne	.-8      	; 0x4f40 <animate_title+0x5d8>
    4f48:	a1 e1       	ldi	r26, 0x11	; 17
    4f4a:	b4 e0       	ldi	r27, 0x04	; 4
    4f4c:	c1 14       	cp	r12, r1
    4f4e:	d1 04       	cpc	r13, r1
    4f50:	09 f4       	brne	.+2      	; 0x4f54 <animate_title+0x5ec>
    4f52:	f4 c0       	rjmp	.+488    	; 0x513c <animate_title+0x7d4>
    4f54:	ee e4       	ldi	r30, 0x4E	; 78
    4f56:	f3 e0       	ldi	r31, 0x03	; 3
    4f58:	83 e0       	ldi	r24, 0x03	; 3
    4f5a:	01 90       	ld	r0, Z+
    4f5c:	0d 92       	st	X+, r0
    4f5e:	81 50       	subi	r24, 0x01	; 1
    4f60:	e1 f7       	brne	.-8      	; 0x4f5a <animate_title+0x5f2>
    4f62:	a4 e1       	ldi	r26, 0x14	; 20
    4f64:	b4 e0       	ldi	r27, 0x04	; 4
    4f66:	a1 14       	cp	r10, r1
    4f68:	b1 04       	cpc	r11, r1
    4f6a:	09 f4       	brne	.+2      	; 0x4f6e <animate_title+0x606>
    4f6c:	b7 c0       	rjmp	.+366    	; 0x50dc <animate_title+0x774>
    4f6e:	ee e4       	ldi	r30, 0x4E	; 78
    4f70:	f3 e0       	ldi	r31, 0x03	; 3
    4f72:	83 e0       	ldi	r24, 0x03	; 3
    4f74:	01 90       	ld	r0, Z+
    4f76:	0d 92       	st	X+, r0
    4f78:	81 50       	subi	r24, 0x01	; 1
    4f7a:	e1 f7       	brne	.-8      	; 0x4f74 <animate_title+0x60c>
    4f7c:	a7 e1       	ldi	r26, 0x17	; 23
    4f7e:	b4 e0       	ldi	r27, 0x04	; 4
    4f80:	20 ff       	sbrs	r18, 0
    4f82:	e4 c0       	rjmp	.+456    	; 0x514c <animate_title+0x7e4>
    4f84:	ee e4       	ldi	r30, 0x4E	; 78
    4f86:	f3 e0       	ldi	r31, 0x03	; 3
    4f88:	83 e0       	ldi	r24, 0x03	; 3
    4f8a:	01 90       	ld	r0, Z+
    4f8c:	0d 92       	st	X+, r0
    4f8e:	81 50       	subi	r24, 0x01	; 1
    4f90:	e1 f7       	brne	.-8      	; 0x4f8a <animate_title+0x622>
    4f92:	fe cc       	rjmp	.-1540   	; 0x4990 <animate_title+0x28>
    4f94:	ea e4       	ldi	r30, 0x4A	; 74
    4f96:	f1 e0       	ldi	r31, 0x01	; 1
    4f98:	83 e0       	ldi	r24, 0x03	; 3
    4f9a:	01 90       	ld	r0, Z+
    4f9c:	0d 92       	st	X+, r0
    4f9e:	81 50       	subi	r24, 0x01	; 1
    4fa0:	e1 f7       	brne	.-8      	; 0x4f9a <animate_title+0x632>
    4fa2:	2f cd       	rjmp	.-1442   	; 0x4a02 <animate_title+0x9a>
    4fa4:	ea e4       	ldi	r30, 0x4A	; 74
    4fa6:	f1 e0       	ldi	r31, 0x01	; 1
    4fa8:	83 e0       	ldi	r24, 0x03	; 3
    4faa:	01 90       	ld	r0, Z+
    4fac:	0d 92       	st	X+, r0
    4fae:	81 50       	subi	r24, 0x01	; 1
    4fb0:	e1 f7       	brne	.-8      	; 0x4faa <animate_title+0x642>
    4fb2:	37 cd       	rjmp	.-1426   	; 0x4a22 <animate_title+0xba>
    4fb4:	aa e4       	ldi	r26, 0x4A	; 74
    4fb6:	b1 e0       	ldi	r27, 0x01	; 1
    4fb8:	83 e0       	ldi	r24, 0x03	; 3
    4fba:	0d 90       	ld	r0, X+
    4fbc:	01 92       	st	Z+, r0
    4fbe:	81 50       	subi	r24, 0x01	; 1
    4fc0:	e1 f7       	brne	.-8      	; 0x4fba <animate_title+0x652>
    4fc2:	3d cd       	rjmp	.-1414   	; 0x4a3e <animate_title+0xd6>
    4fc4:	aa e4       	ldi	r26, 0x4A	; 74
    4fc6:	b1 e0       	ldi	r27, 0x01	; 1
    4fc8:	83 e0       	ldi	r24, 0x03	; 3
    4fca:	0d 90       	ld	r0, X+
    4fcc:	01 92       	st	Z+, r0
    4fce:	81 50       	subi	r24, 0x01	; 1
    4fd0:	e1 f7       	brne	.-8      	; 0x4fca <animate_title+0x662>
    4fd2:	45 cd       	rjmp	.-1398   	; 0x4a5e <animate_title+0xf6>
    4fd4:	aa e4       	ldi	r26, 0x4A	; 74
    4fd6:	b1 e0       	ldi	r27, 0x01	; 1
    4fd8:	83 e0       	ldi	r24, 0x03	; 3
    4fda:	0d 90       	ld	r0, X+
    4fdc:	01 92       	st	Z+, r0
    4fde:	81 50       	subi	r24, 0x01	; 1
    4fe0:	e1 f7       	brne	.-8      	; 0x4fda <animate_title+0x672>
    4fe2:	4d cd       	rjmp	.-1382   	; 0x4a7e <animate_title+0x116>
    4fe4:	aa e4       	ldi	r26, 0x4A	; 74
    4fe6:	b1 e0       	ldi	r27, 0x01	; 1
    4fe8:	83 e0       	ldi	r24, 0x03	; 3
    4fea:	0d 90       	ld	r0, X+
    4fec:	01 92       	st	Z+, r0
    4fee:	81 50       	subi	r24, 0x01	; 1
    4ff0:	e1 f7       	brne	.-8      	; 0x4fea <animate_title+0x682>
    4ff2:	57 cd       	rjmp	.-1362   	; 0x4aa2 <animate_title+0x13a>
    4ff4:	aa e4       	ldi	r26, 0x4A	; 74
    4ff6:	b1 e0       	ldi	r27, 0x01	; 1
    4ff8:	83 e0       	ldi	r24, 0x03	; 3
    4ffa:	0d 90       	ld	r0, X+
    4ffc:	01 92       	st	Z+, r0
    4ffe:	81 50       	subi	r24, 0x01	; 1
    5000:	e1 f7       	brne	.-8      	; 0x4ffa <animate_title+0x692>
    5002:	5f cd       	rjmp	.-1346   	; 0x4ac2 <animate_title+0x15a>
    5004:	aa e4       	ldi	r26, 0x4A	; 74
    5006:	b1 e0       	ldi	r27, 0x01	; 1
    5008:	83 e0       	ldi	r24, 0x03	; 3
    500a:	0d 90       	ld	r0, X+
    500c:	01 92       	st	Z+, r0
    500e:	81 50       	subi	r24, 0x01	; 1
    5010:	e1 f7       	brne	.-8      	; 0x500a <animate_title+0x6a2>
    5012:	69 cd       	rjmp	.-1326   	; 0x4ae6 <animate_title+0x17e>
    5014:	aa e4       	ldi	r26, 0x4A	; 74
    5016:	b1 e0       	ldi	r27, 0x01	; 1
    5018:	83 e0       	ldi	r24, 0x03	; 3
    501a:	0d 90       	ld	r0, X+
    501c:	01 92       	st	Z+, r0
    501e:	81 50       	subi	r24, 0x01	; 1
    5020:	e1 f7       	brne	.-8      	; 0x501a <animate_title+0x6b2>
    5022:	6e cd       	rjmp	.-1316   	; 0x4b00 <animate_title+0x198>
    5024:	0e 94 cd 2d 	call	0x5b9a	; 0x5b9a <rand>
    5028:	63 e0       	ldi	r22, 0x03	; 3
    502a:	70 e0       	ldi	r23, 0x00	; 0
    502c:	0e 94 59 2d 	call	0x5ab2	; 0x5ab2 <__divmodhi4>
    5030:	82 5b       	subi	r24, 0xB2	; 178
    5032:	9c 4f       	sbci	r25, 0xFC	; 252
    5034:	21 e0       	ldi	r18, 0x01	; 1
    5036:	fc 01       	movw	r30, r24
    5038:	20 83       	st	Z, r18
    503a:	d2 cc       	rjmp	.-1628   	; 0x49e0 <animate_title+0x78>
    503c:	aa e4       	ldi	r26, 0x4A	; 74
    503e:	b1 e0       	ldi	r27, 0x01	; 1
    5040:	83 e0       	ldi	r24, 0x03	; 3
    5042:	0d 90       	ld	r0, X+
    5044:	01 92       	st	Z+, r0
    5046:	81 50       	subi	r24, 0x01	; 1
    5048:	e1 f7       	brne	.-8      	; 0x5042 <animate_title+0x6da>
    504a:	aa cd       	rjmp	.-1196   	; 0x4ba0 <animate_title+0x238>
    504c:	aa e4       	ldi	r26, 0x4A	; 74
    504e:	b1 e0       	ldi	r27, 0x01	; 1
    5050:	83 e0       	ldi	r24, 0x03	; 3
    5052:	0d 90       	ld	r0, X+
    5054:	01 92       	st	Z+, r0
    5056:	81 50       	subi	r24, 0x01	; 1
    5058:	e1 f7       	brne	.-8      	; 0x5052 <animate_title+0x6ea>
    505a:	96 cd       	rjmp	.-1236   	; 0x4b88 <animate_title+0x220>
    505c:	aa e4       	ldi	r26, 0x4A	; 74
    505e:	b1 e0       	ldi	r27, 0x01	; 1
    5060:	83 e0       	ldi	r24, 0x03	; 3
    5062:	0d 90       	ld	r0, X+
    5064:	01 92       	st	Z+, r0
    5066:	81 50       	subi	r24, 0x01	; 1
    5068:	e1 f7       	brne	.-8      	; 0x5062 <animate_title+0x6fa>
    506a:	ed cd       	rjmp	.-1062   	; 0x4c46 <animate_title+0x2de>
    506c:	aa e4       	ldi	r26, 0x4A	; 74
    506e:	b1 e0       	ldi	r27, 0x01	; 1
    5070:	83 e0       	ldi	r24, 0x03	; 3
    5072:	0d 90       	ld	r0, X+
    5074:	01 92       	st	Z+, r0
    5076:	81 50       	subi	r24, 0x01	; 1
    5078:	e1 f7       	brne	.-8      	; 0x5072 <animate_title+0x70a>
    507a:	d8 cd       	rjmp	.-1104   	; 0x4c2c <animate_title+0x2c4>
    507c:	aa e4       	ldi	r26, 0x4A	; 74
    507e:	b1 e0       	ldi	r27, 0x01	; 1
    5080:	83 e0       	ldi	r24, 0x03	; 3
    5082:	0d 90       	ld	r0, X+
    5084:	01 92       	st	Z+, r0
    5086:	81 50       	subi	r24, 0x01	; 1
    5088:	e1 f7       	brne	.-8      	; 0x5082 <animate_title+0x71a>
    508a:	2e ce       	rjmp	.-932    	; 0x4ce8 <animate_title+0x380>
    508c:	aa e4       	ldi	r26, 0x4A	; 74
    508e:	b1 e0       	ldi	r27, 0x01	; 1
    5090:	83 e0       	ldi	r24, 0x03	; 3
    5092:	0d 90       	ld	r0, X+
    5094:	01 92       	st	Z+, r0
    5096:	81 50       	subi	r24, 0x01	; 1
    5098:	e1 f7       	brne	.-8      	; 0x5092 <animate_title+0x72a>
    509a:	19 ce       	rjmp	.-974    	; 0x4cce <animate_title+0x366>
    509c:	aa e4       	ldi	r26, 0x4A	; 74
    509e:	b1 e0       	ldi	r27, 0x01	; 1
    50a0:	83 e0       	ldi	r24, 0x03	; 3
    50a2:	0d 90       	ld	r0, X+
    50a4:	01 92       	st	Z+, r0
    50a6:	81 50       	subi	r24, 0x01	; 1
    50a8:	e1 f7       	brne	.-8      	; 0x50a2 <animate_title+0x73a>
    50aa:	73 ce       	rjmp	.-794    	; 0x4d92 <animate_title+0x42a>
    50ac:	aa e4       	ldi	r26, 0x4A	; 74
    50ae:	b1 e0       	ldi	r27, 0x01	; 1
    50b0:	83 e0       	ldi	r24, 0x03	; 3
    50b2:	0d 90       	ld	r0, X+
    50b4:	01 92       	st	Z+, r0
    50b6:	81 50       	subi	r24, 0x01	; 1
    50b8:	e1 f7       	brne	.-8      	; 0x50b2 <animate_title+0x74a>
    50ba:	5e ce       	rjmp	.-836    	; 0x4d78 <animate_title+0x410>
    50bc:	aa e4       	ldi	r26, 0x4A	; 74
    50be:	b1 e0       	ldi	r27, 0x01	; 1
    50c0:	83 e0       	ldi	r24, 0x03	; 3
    50c2:	0d 90       	ld	r0, X+
    50c4:	01 92       	st	Z+, r0
    50c6:	81 50       	subi	r24, 0x01	; 1
    50c8:	e1 f7       	brne	.-8      	; 0x50c2 <animate_title+0x75a>
    50ca:	a9 ce       	rjmp	.-686    	; 0x4e1e <animate_title+0x4b6>
    50cc:	aa e4       	ldi	r26, 0x4A	; 74
    50ce:	b1 e0       	ldi	r27, 0x01	; 1
    50d0:	83 e0       	ldi	r24, 0x03	; 3
    50d2:	0d 90       	ld	r0, X+
    50d4:	01 92       	st	Z+, r0
    50d6:	81 50       	subi	r24, 0x01	; 1
    50d8:	e1 f7       	brne	.-8      	; 0x50d2 <animate_title+0x76a>
    50da:	ae ce       	rjmp	.-676    	; 0x4e38 <animate_title+0x4d0>
    50dc:	ea e4       	ldi	r30, 0x4A	; 74
    50de:	f1 e0       	ldi	r31, 0x01	; 1
    50e0:	83 e0       	ldi	r24, 0x03	; 3
    50e2:	01 90       	ld	r0, Z+
    50e4:	0d 92       	st	X+, r0
    50e6:	81 50       	subi	r24, 0x01	; 1
    50e8:	e1 f7       	brne	.-8      	; 0x50e2 <animate_title+0x77a>
    50ea:	48 cf       	rjmp	.-368    	; 0x4f7c <animate_title+0x614>
    50ec:	aa e4       	ldi	r26, 0x4A	; 74
    50ee:	b1 e0       	ldi	r27, 0x01	; 1
    50f0:	83 e0       	ldi	r24, 0x03	; 3
    50f2:	0d 90       	ld	r0, X+
    50f4:	01 92       	st	Z+, r0
    50f6:	81 50       	subi	r24, 0x01	; 1
    50f8:	e1 f7       	brne	.-8      	; 0x50f2 <animate_title+0x78a>
    50fa:	0c cf       	rjmp	.-488    	; 0x4f14 <animate_title+0x5ac>
    50fc:	aa e4       	ldi	r26, 0x4A	; 74
    50fe:	b1 e0       	ldi	r27, 0x01	; 1
    5100:	83 e0       	ldi	r24, 0x03	; 3
    5102:	0d 90       	ld	r0, X+
    5104:	01 92       	st	Z+, r0
    5106:	81 50       	subi	r24, 0x01	; 1
    5108:	e1 f7       	brne	.-8      	; 0x5102 <animate_title+0x79a>
    510a:	f8 ce       	rjmp	.-528    	; 0x4efc <animate_title+0x594>
    510c:	aa e4       	ldi	r26, 0x4A	; 74
    510e:	b1 e0       	ldi	r27, 0x01	; 1
    5110:	83 e0       	ldi	r24, 0x03	; 3
    5112:	0d 90       	ld	r0, X+
    5114:	01 92       	st	Z+, r0
    5116:	81 50       	subi	r24, 0x01	; 1
    5118:	e1 f7       	brne	.-8      	; 0x5112 <animate_title+0x7aa>
    511a:	e3 ce       	rjmp	.-570    	; 0x4ee2 <animate_title+0x57a>
    511c:	aa e4       	ldi	r26, 0x4A	; 74
    511e:	b1 e0       	ldi	r27, 0x01	; 1
    5120:	83 e0       	ldi	r24, 0x03	; 3
    5122:	0d 90       	ld	r0, X+
    5124:	01 92       	st	Z+, r0
    5126:	81 50       	subi	r24, 0x01	; 1
    5128:	e1 f7       	brne	.-8      	; 0x5122 <animate_title+0x7ba>
    512a:	0e cf       	rjmp	.-484    	; 0x4f48 <animate_title+0x5e0>
    512c:	aa e4       	ldi	r26, 0x4A	; 74
    512e:	b1 e0       	ldi	r27, 0x01	; 1
    5130:	83 e0       	ldi	r24, 0x03	; 3
    5132:	0d 90       	ld	r0, X+
    5134:	01 92       	st	Z+, r0
    5136:	81 50       	subi	r24, 0x01	; 1
    5138:	e1 f7       	brne	.-8      	; 0x5132 <animate_title+0x7ca>
    513a:	f9 ce       	rjmp	.-526    	; 0x4f2e <animate_title+0x5c6>
    513c:	ea e4       	ldi	r30, 0x4A	; 74
    513e:	f1 e0       	ldi	r31, 0x01	; 1
    5140:	83 e0       	ldi	r24, 0x03	; 3
    5142:	01 90       	ld	r0, Z+
    5144:	0d 92       	st	X+, r0
    5146:	81 50       	subi	r24, 0x01	; 1
    5148:	e1 f7       	brne	.-8      	; 0x5142 <animate_title+0x7da>
    514a:	0b cf       	rjmp	.-490    	; 0x4f62 <animate_title+0x5fa>
    514c:	ea e4       	ldi	r30, 0x4A	; 74
    514e:	f1 e0       	ldi	r31, 0x01	; 1
    5150:	83 e0       	ldi	r24, 0x03	; 3
    5152:	01 90       	ld	r0, Z+
    5154:	0d 92       	st	X+, r0
    5156:	81 50       	subi	r24, 0x01	; 1
    5158:	e1 f7       	brne	.-8      	; 0x5152 <animate_title+0x7ea>
    515a:	1a cc       	rjmp	.-1996   	; 0x4990 <animate_title+0x28>
    515c:	aa e4       	ldi	r26, 0x4A	; 74
    515e:	b1 e0       	ldi	r27, 0x01	; 1
    5160:	83 e0       	ldi	r24, 0x03	; 3
    5162:	0d 90       	ld	r0, X+
    5164:	01 92       	st	Z+, r0
    5166:	81 50       	subi	r24, 0x01	; 1
    5168:	e1 f7       	brne	.-8      	; 0x5162 <animate_title+0x7fa>
    516a:	ae ce       	rjmp	.-676    	; 0x4ec8 <animate_title+0x560>

0000516c <gameTick>:
    516c:	cf 93       	push	r28
    516e:	df 93       	push	r29
    5170:	0f 92       	push	r0
    5172:	cd b7       	in	r28, 0x3d	; 61
    5174:	de b7       	in	r29, 0x3e	; 62
    5176:	89 83       	std	Y+1, r24	; 0x01
    5178:	60 91 e8 00 	lds	r22, 0x00E8
    517c:	70 91 e9 00 	lds	r23, 0x00E9
    5180:	80 91 96 00 	lds	r24, 0x0096
    5184:	90 91 97 00 	lds	r25, 0x0097
    5188:	0e 94 e6 2d 	call	0x5bcc	; 0x5bcc <strcpy>
    518c:	89 81       	ldd	r24, Y+1	; 0x01
    518e:	82 30       	cpi	r24, 0x02	; 2
    5190:	09 f4       	brne	.+2      	; 0x5194 <gameTick+0x28>
    5192:	a7 c0       	rjmp	.+334    	; 0x52e2 <gameTick+0x176>
    5194:	83 30       	cpi	r24, 0x03	; 3
    5196:	98 f0       	brcs	.+38     	; 0x51be <gameTick+0x52>
    5198:	84 30       	cpi	r24, 0x04	; 4
    519a:	09 f4       	brne	.+2      	; 0x519e <gameTick+0x32>
    519c:	d3 c0       	rjmp	.+422    	; 0x5344 <gameTick+0x1d8>
    519e:	84 30       	cpi	r24, 0x04	; 4
    51a0:	08 f0       	brcs	.+2      	; 0x51a4 <gameTick+0x38>
    51a2:	65 c0       	rjmp	.+202    	; 0x526e <gameTick+0x102>
    51a4:	80 91 53 01 	lds	r24, 0x0153
    51a8:	81 50       	subi	r24, 0x01	; 1
    51aa:	80 93 53 01 	sts	0x0153, r24
    51ae:	80 91 67 01 	lds	r24, 0x0167
    51b2:	81 50       	subi	r24, 0x01	; 1
    51b4:	80 93 67 01 	sts	0x0167, r24
    51b8:	92 e0       	ldi	r25, 0x02	; 2
    51ba:	99 83       	std	Y+1, r25	; 0x01
    51bc:	1a c0       	rjmp	.+52     	; 0x51f2 <gameTick+0x86>
    51be:	88 23       	and	r24, r24
    51c0:	81 f0       	breq	.+32     	; 0x51e2 <gameTick+0x76>
    51c2:	81 30       	cpi	r24, 0x01	; 1
    51c4:	09 f4       	brne	.+2      	; 0x51c8 <gameTick+0x5c>
    51c6:	a5 c0       	rjmp	.+330    	; 0x5312 <gameTick+0x1a6>
    51c8:	81 30       	cpi	r24, 0x01	; 1
    51ca:	09 f4       	brne	.+2      	; 0x51ce <gameTick+0x62>
    51cc:	99 c0       	rjmp	.+306    	; 0x5300 <gameTick+0x194>
    51ce:	81 30       	cpi	r24, 0x01	; 1
    51d0:	08 f4       	brcc	.+2      	; 0x51d4 <gameTick+0x68>
    51d2:	80 c0       	rjmp	.+256    	; 0x52d4 <gameTick+0x168>
    51d4:	82 30       	cpi	r24, 0x02	; 2
    51d6:	09 f4       	brne	.+2      	; 0x51da <gameTick+0x6e>
    51d8:	c4 c0       	rjmp	.+392    	; 0x5362 <gameTick+0x1f6>
    51da:	0f 90       	pop	r0
    51dc:	df 91       	pop	r29
    51de:	cf 91       	pop	r28
    51e0:	08 95       	ret
    51e2:	80 91 74 04 	lds	r24, 0x0474
    51e6:	84 ff       	sbrs	r24, 4
    51e8:	75 c0       	rjmp	.+234    	; 0x52d4 <gameTick+0x168>
    51ea:	82 e0       	ldi	r24, 0x02	; 2
    51ec:	89 83       	std	Y+1, r24	; 0x01
    51ee:	80 91 67 01 	lds	r24, 0x0167
    51f2:	8f 5f       	subi	r24, 0xFF	; 255
    51f4:	0e 94 f2 19 	call	0x33e4	; 0x33e4 <loadLevel>
    51f8:	80 91 67 01 	lds	r24, 0x0167
    51fc:	8f 5f       	subi	r24, 0xFF	; 255
    51fe:	80 93 67 01 	sts	0x0167, r24
    5202:	0e 94 aa 1a 	call	0x3554	; 0x3554 <AdvanceLevel>
    5206:	10 92 72 04 	sts	0x0472, r1
    520a:	10 92 57 01 	sts	0x0157, r1
    520e:	10 92 56 01 	sts	0x0156, r1
    5212:	10 92 55 01 	sts	0x0155, r1
    5216:	20 91 7e 04 	lds	r18, 0x047E
    521a:	30 e0       	ldi	r19, 0x00	; 0
    521c:	80 91 7f 04 	lds	r24, 0x047F
    5220:	90 e0       	ldi	r25, 0x00	; 0
    5222:	f9 01       	movw	r30, r18
    5224:	ee 0f       	add	r30, r30
    5226:	ff 1f       	adc	r31, r31
    5228:	e2 0f       	add	r30, r18
    522a:	f3 1f       	adc	r31, r19
    522c:	9c 01       	movw	r18, r24
    522e:	22 0f       	add	r18, r18
    5230:	33 1f       	adc	r19, r19
    5232:	28 0f       	add	r18, r24
    5234:	39 1f       	adc	r19, r25
    5236:	22 0f       	add	r18, r18
    5238:	33 1f       	adc	r19, r19
    523a:	22 0f       	add	r18, r18
    523c:	33 1f       	adc	r19, r19
    523e:	22 0f       	add	r18, r18
    5240:	33 1f       	adc	r19, r19
    5242:	e2 0f       	add	r30, r18
    5244:	f3 1f       	adc	r31, r19
    5246:	e6 5a       	subi	r30, 0xA6	; 166
    5248:	fc 4f       	sbci	r31, 0xFC	; 252
    524a:	a0 e8       	ldi	r26, 0x80	; 128
    524c:	b4 e0       	ldi	r27, 0x04	; 4
    524e:	83 e0       	ldi	r24, 0x03	; 3
    5250:	0d 90       	ld	r0, X+
    5252:	01 92       	st	Z+, r0
    5254:	81 50       	subi	r24, 0x01	; 1
    5256:	e1 f7       	brne	.-8      	; 0x5250 <gameTick+0xe4>
    5258:	a3 e8       	ldi	r26, 0x83	; 131
    525a:	b4 e0       	ldi	r27, 0x04	; 4
    525c:	ec e5       	ldi	r30, 0x5C	; 92
    525e:	f4 e0       	ldi	r31, 0x04	; 4
    5260:	83 e0       	ldi	r24, 0x03	; 3
    5262:	01 90       	ld	r0, Z+
    5264:	0d 92       	st	X+, r0
    5266:	81 50       	subi	r24, 0x01	; 1
    5268:	e1 f7       	brne	.-8      	; 0x5262 <gameTick+0xf6>
    526a:	89 81       	ldd	r24, Y+1	; 0x01
    526c:	b6 cf       	rjmp	.-148    	; 0x51da <gameTick+0x6e>
    526e:	8f 3f       	cpi	r24, 0xFF	; 255
    5270:	09 f0       	breq	.+2      	; 0x5274 <gameTick+0x108>
    5272:	aa cf       	rjmp	.-172    	; 0x51c8 <gameTick+0x5c>
    5274:	19 82       	std	Y+1, r1	; 0x01
    5276:	88 e0       	ldi	r24, 0x08	; 8
    5278:	80 93 80 04 	sts	0x0480, r24
    527c:	10 92 81 04 	sts	0x0481, r1
    5280:	10 92 82 04 	sts	0x0482, r1
    5284:	10 92 83 04 	sts	0x0483, r1
    5288:	10 92 84 04 	sts	0x0484, r1
    528c:	10 92 85 04 	sts	0x0485, r1
    5290:	10 92 67 01 	sts	0x0167, r1
    5294:	83 e0       	ldi	r24, 0x03	; 3
    5296:	80 93 53 01 	sts	0x0153, r24
    529a:	80 e6       	ldi	r24, 0x60	; 96
    529c:	90 e0       	ldi	r25, 0x00	; 0
    529e:	90 93 94 00 	sts	0x0094, r25
    52a2:	80 93 93 00 	sts	0x0093, r24
    52a6:	90 93 e9 00 	sts	0x00E9, r25
    52aa:	80 93 e8 00 	sts	0x00E8, r24
    52ae:	81 e0       	ldi	r24, 0x01	; 1
    52b0:	80 93 64 01 	sts	0x0164, r24
    52b4:	86 e1       	ldi	r24, 0x16	; 22
    52b6:	94 e0       	ldi	r25, 0x04	; 4
    52b8:	90 93 77 04 	sts	0x0477, r25
    52bc:	80 93 76 04 	sts	0x0476, r24
    52c0:	10 92 7b 04 	sts	0x047B, r1
    52c4:	10 92 7a 04 	sts	0x047A, r1
    52c8:	81 e0       	ldi	r24, 0x01	; 1
    52ca:	90 e0       	ldi	r25, 0x00	; 0
    52cc:	90 93 79 04 	sts	0x0479, r25
    52d0:	80 93 78 04 	sts	0x0478, r24
    52d4:	0e 94 b4 24 	call	0x4968	; 0x4968 <animate_title>
    52d8:	89 81       	ldd	r24, Y+1	; 0x01
    52da:	0f 90       	pop	r0
    52dc:	df 91       	pop	r29
    52de:	cf 91       	pop	r28
    52e0:	08 95       	ret
    52e2:	80 91 67 01 	lds	r24, 0x0167
    52e6:	80 5d       	subi	r24, 0xD0	; 208
    52e8:	80 93 8d 00 	sts	0x008D, r24
    52ec:	82 e8       	ldi	r24, 0x82	; 130
    52ee:	90 e0       	ldi	r25, 0x00	; 0
    52f0:	90 93 e9 00 	sts	0x00E9, r25
    52f4:	80 93 e8 00 	sts	0x00E8, r24
    52f8:	81 e0       	ldi	r24, 0x01	; 1
    52fa:	80 93 64 01 	sts	0x0164, r24
    52fe:	89 83       	std	Y+1, r24	; 0x01
    5300:	ce 01       	movw	r24, r28
    5302:	01 96       	adiw	r24, 0x01	; 1
    5304:	0e 94 de 21 	call	0x43bc	; 0x43bc <moveMario>
    5308:	89 81       	ldd	r24, Y+1	; 0x01
    530a:	0f 90       	pop	r0
    530c:	df 91       	pop	r29
    530e:	cf 91       	pop	r28
    5310:	08 95       	ret
    5312:	90 91 7e 04 	lds	r25, 0x047E
    5316:	20 91 74 04 	lds	r18, 0x0474
    531a:	30 91 75 04 	lds	r19, 0x0475
    531e:	93 37       	cpi	r25, 0x73	; 115
    5320:	d9 f0       	breq	.+54     	; 0x5358 <gameTick+0x1ec>
    5322:	20 73       	andi	r18, 0x30	; 48
    5324:	30 70       	andi	r19, 0x00	; 0
    5326:	20 33       	cpi	r18, 0x30	; 48
    5328:	31 05       	cpc	r19, r1
    532a:	09 f0       	breq	.+2      	; 0x532e <gameTick+0x1c2>
    532c:	4d cf       	rjmp	.-358    	; 0x51c8 <gameTick+0x5c>
    532e:	81 e7       	ldi	r24, 0x71	; 113
    5330:	90 e0       	ldi	r25, 0x00	; 0
    5332:	90 93 e9 00 	sts	0x00E9, r25
    5336:	80 93 e8 00 	sts	0x00E8, r24
    533a:	81 e0       	ldi	r24, 0x01	; 1
    533c:	80 93 64 01 	sts	0x0164, r24
    5340:	84 e0       	ldi	r24, 0x04	; 4
    5342:	4b cf       	rjmp	.-362    	; 0x51da <gameTick+0x6e>
    5344:	20 91 74 04 	lds	r18, 0x0474
    5348:	30 91 75 04 	lds	r19, 0x0475
    534c:	21 15       	cp	r18, r1
    534e:	31 05       	cpc	r19, r1
    5350:	09 f0       	breq	.+2      	; 0x5354 <gameTick+0x1e8>
    5352:	43 cf       	rjmp	.-378    	; 0x51da <gameTick+0x6e>
    5354:	8f ef       	ldi	r24, 0xFF	; 255
    5356:	41 cf       	rjmp	.-382    	; 0x51da <gameTick+0x6e>
    5358:	23 ff       	sbrs	r18, 3
    535a:	e3 cf       	rjmp	.-58     	; 0x5322 <gameTick+0x1b6>
    535c:	82 e0       	ldi	r24, 0x02	; 2
    535e:	89 83       	std	Y+1, r24	; 0x01
    5360:	e0 cf       	rjmp	.-64     	; 0x5322 <gameTick+0x1b6>
    5362:	80 91 67 01 	lds	r24, 0x0167
    5366:	45 cf       	rjmp	.-374    	; 0x51f2 <gameTick+0x86>

00005368 <SetBit>:
    5368:	21 e0       	ldi	r18, 0x01	; 1
    536a:	30 e0       	ldi	r19, 0x00	; 0
    536c:	02 c0       	rjmp	.+4      	; 0x5372 <SetBit+0xa>
    536e:	22 0f       	add	r18, r18
    5370:	33 1f       	adc	r19, r19
    5372:	6a 95       	dec	r22
    5374:	e2 f7       	brpl	.-8      	; 0x536e <SetBit+0x6>
    5376:	44 23       	and	r20, r20
    5378:	21 f4       	brne	.+8      	; 0x5382 <SetBit+0x1a>
    537a:	20 95       	com	r18
    537c:	28 23       	and	r18, r24
    537e:	82 2f       	mov	r24, r18
    5380:	08 95       	ret
    5382:	28 2b       	or	r18, r24
    5384:	82 2f       	mov	r24, r18
    5386:	08 95       	ret

00005388 <GetBit>:
    5388:	21 e0       	ldi	r18, 0x01	; 1
    538a:	30 e0       	ldi	r19, 0x00	; 0
    538c:	02 c0       	rjmp	.+4      	; 0x5392 <GetBit+0xa>
    538e:	22 0f       	add	r18, r18
    5390:	33 1f       	adc	r19, r19
    5392:	6a 95       	dec	r22
    5394:	e2 f7       	brpl	.-8      	; 0x538e <GetBit+0x6>
    5396:	82 23       	and	r24, r18
    5398:	08 95       	ret

0000539a <LCD_WriteCmdStart>:
    539a:	e0 91 ec 00 	lds	r30, 0x00EC
    539e:	f0 91 ed 00 	lds	r31, 0x00ED
    53a2:	90 81       	ld	r25, Z
    53a4:	97 7f       	andi	r25, 0xF7	; 247
    53a6:	90 83       	st	Z, r25
    53a8:	e0 91 f0 00 	lds	r30, 0x00F0
    53ac:	f0 91 f1 00 	lds	r31, 0x00F1
    53b0:	a0 91 ec 00 	lds	r26, 0x00EC
    53b4:	b0 91 ed 00 	lds	r27, 0x00ED
    53b8:	9c 91       	ld	r25, X
    53ba:	90 83       	st	Z, r25
    53bc:	e0 91 f2 00 	lds	r30, 0x00F2
    53c0:	f0 91 f3 00 	lds	r31, 0x00F3
    53c4:	80 83       	st	Z, r24
    53c6:	e0 91 ec 00 	lds	r30, 0x00EC
    53ca:	f0 91 ed 00 	lds	r31, 0x00ED
    53ce:	80 81       	ld	r24, Z
    53d0:	80 61       	ori	r24, 0x10	; 16
    53d2:	80 83       	st	Z, r24
    53d4:	e0 91 f0 00 	lds	r30, 0x00F0
    53d8:	f0 91 f1 00 	lds	r31, 0x00F1
    53dc:	a0 91 ec 00 	lds	r26, 0x00EC
    53e0:	b0 91 ed 00 	lds	r27, 0x00ED
    53e4:	8c 91       	ld	r24, X
    53e6:	80 83       	st	Z, r24
    53e8:	08 95       	ret

000053ea <LCD_WriteCmdEnd>:
    53ea:	e0 91 ec 00 	lds	r30, 0x00EC
    53ee:	f0 91 ed 00 	lds	r31, 0x00ED
    53f2:	80 81       	ld	r24, Z
    53f4:	8f 7e       	andi	r24, 0xEF	; 239
    53f6:	80 83       	st	Z, r24
    53f8:	e0 91 f0 00 	lds	r30, 0x00F0
    53fc:	f0 91 f1 00 	lds	r31, 0x00F1
    5400:	a0 91 ec 00 	lds	r26, 0x00EC
    5404:	b0 91 ed 00 	lds	r27, 0x00ED
    5408:	8c 91       	ld	r24, X
    540a:	80 83       	st	Z, r24
    540c:	08 95       	ret

0000540e <LCD_WriteDataStart>:
    540e:	e0 91 ec 00 	lds	r30, 0x00EC
    5412:	f0 91 ed 00 	lds	r31, 0x00ED
    5416:	90 81       	ld	r25, Z
    5418:	98 60       	ori	r25, 0x08	; 8
    541a:	90 83       	st	Z, r25
    541c:	e0 91 f0 00 	lds	r30, 0x00F0
    5420:	f0 91 f1 00 	lds	r31, 0x00F1
    5424:	a0 91 ec 00 	lds	r26, 0x00EC
    5428:	b0 91 ed 00 	lds	r27, 0x00ED
    542c:	9c 91       	ld	r25, X
    542e:	90 83       	st	Z, r25
    5430:	e0 91 f2 00 	lds	r30, 0x00F2
    5434:	f0 91 f3 00 	lds	r31, 0x00F3
    5438:	80 83       	st	Z, r24
    543a:	e0 91 ec 00 	lds	r30, 0x00EC
    543e:	f0 91 ed 00 	lds	r31, 0x00ED
    5442:	80 81       	ld	r24, Z
    5444:	80 61       	ori	r24, 0x10	; 16
    5446:	80 83       	st	Z, r24
    5448:	e0 91 f0 00 	lds	r30, 0x00F0
    544c:	f0 91 f1 00 	lds	r31, 0x00F1
    5450:	a0 91 ec 00 	lds	r26, 0x00EC
    5454:	b0 91 ed 00 	lds	r27, 0x00ED
    5458:	8c 91       	ld	r24, X
    545a:	80 83       	st	Z, r24
    545c:	08 95       	ret

0000545e <LCD_WriteDataEnd>:
    545e:	e0 91 ec 00 	lds	r30, 0x00EC
    5462:	f0 91 ed 00 	lds	r31, 0x00ED
    5466:	80 81       	ld	r24, Z
    5468:	8f 7e       	andi	r24, 0xEF	; 239
    546a:	80 83       	st	Z, r24
    546c:	e0 91 f0 00 	lds	r30, 0x00F0
    5470:	f0 91 f1 00 	lds	r31, 0x00F1
    5474:	a0 91 ec 00 	lds	r26, 0x00EC
    5478:	b0 91 ed 00 	lds	r27, 0x00ED
    547c:	8c 91       	ld	r24, X
    547e:	80 83       	st	Z, r24
    5480:	08 95       	ret

00005482 <LCD_Cursor>:
    5482:	e0 91 ec 00 	lds	r30, 0x00EC
    5486:	f0 91 ed 00 	lds	r31, 0x00ED
    548a:	90 81       	ld	r25, Z
    548c:	97 7f       	andi	r25, 0xF7	; 247
    548e:	90 83       	st	Z, r25
    5490:	e0 91 f0 00 	lds	r30, 0x00F0
    5494:	f0 91 f1 00 	lds	r31, 0x00F1
    5498:	a0 91 ec 00 	lds	r26, 0x00EC
    549c:	b0 91 ed 00 	lds	r27, 0x00ED
    54a0:	9c 91       	ld	r25, X
    54a2:	90 83       	st	Z, r25
    54a4:	e0 91 f2 00 	lds	r30, 0x00F2
    54a8:	f0 91 f3 00 	lds	r31, 0x00F3
    54ac:	80 31       	cpi	r24, 0x10	; 16
    54ae:	a0 f0       	brcs	.+40     	; 0x54d8 <LCD_Cursor+0x56>
    54b0:	80 55       	subi	r24, 0x50	; 80
    54b2:	80 83       	st	Z, r24
    54b4:	e0 91 ec 00 	lds	r30, 0x00EC
    54b8:	f0 91 ed 00 	lds	r31, 0x00ED
    54bc:	80 81       	ld	r24, Z
    54be:	80 61       	ori	r24, 0x10	; 16
    54c0:	80 83       	st	Z, r24
    54c2:	e0 91 f0 00 	lds	r30, 0x00F0
    54c6:	f0 91 f1 00 	lds	r31, 0x00F1
    54ca:	a0 91 ec 00 	lds	r26, 0x00EC
    54ce:	b0 91 ed 00 	lds	r27, 0x00ED
    54d2:	8c 91       	ld	r24, X
    54d4:	80 83       	st	Z, r24
    54d6:	08 95       	ret
    54d8:	80 58       	subi	r24, 0x80	; 128
    54da:	eb cf       	rjmp	.-42     	; 0x54b2 <LCD_Cursor+0x30>

000054dc <doNothing>:
    54dc:	80 e0       	ldi	r24, 0x00	; 0
    54de:	08 95       	ret

000054e0 <main>:
    54e0:	86 e1       	ldi	r24, 0x16	; 22
    54e2:	94 e0       	ldi	r25, 0x04	; 4
    54e4:	90 93 77 04 	sts	0x0477, r25
    54e8:	80 93 76 04 	sts	0x0476, r24
    54ec:	10 92 7b 04 	sts	0x047B, r1
    54f0:	10 92 7a 04 	sts	0x047A, r1
    54f4:	81 e0       	ldi	r24, 0x01	; 1
    54f6:	90 e0       	ldi	r25, 0x00	; 0
    54f8:	90 93 79 04 	sts	0x0479, r25
    54fc:	80 93 78 04 	sts	0x0478, r24
    5500:	ef ef       	ldi	r30, 0xFF	; 255
    5502:	e0 93 1a 04 	sts	0x041A, r30
    5506:	41 e0       	ldi	r20, 0x01	; 1
    5508:	50 e0       	ldi	r21, 0x00	; 0
    550a:	60 e0       	ldi	r22, 0x00	; 0
    550c:	70 e0       	ldi	r23, 0x00	; 0
    550e:	40 93 1b 04 	sts	0x041B, r20
    5512:	50 93 1c 04 	sts	0x041C, r21
    5516:	60 93 1d 04 	sts	0x041D, r22
    551a:	70 93 1e 04 	sts	0x041E, r23
    551e:	40 93 1f 04 	sts	0x041F, r20
    5522:	50 93 20 04 	sts	0x0420, r21
    5526:	60 93 21 04 	sts	0x0421, r22
    552a:	70 93 22 04 	sts	0x0422, r23
    552e:	89 e0       	ldi	r24, 0x09	; 9
    5530:	93 e0       	ldi	r25, 0x03	; 3
    5532:	90 93 24 04 	sts	0x0424, r25
    5536:	80 93 23 04 	sts	0x0423, r24
    553a:	e0 93 3b 04 	sts	0x043B, r30
    553e:	40 93 3c 04 	sts	0x043C, r20
    5542:	50 93 3d 04 	sts	0x043D, r21
    5546:	60 93 3e 04 	sts	0x043E, r22
    554a:	70 93 3f 04 	sts	0x043F, r23
    554e:	40 93 40 04 	sts	0x0440, r20
    5552:	50 93 41 04 	sts	0x0441, r21
    5556:	60 93 42 04 	sts	0x0442, r22
    555a:	70 93 43 04 	sts	0x0443, r23
    555e:	8a e6       	ldi	r24, 0x6A	; 106
    5560:	95 e0       	ldi	r25, 0x05	; 5
    5562:	90 93 45 04 	sts	0x0445, r25
    5566:	80 93 44 04 	sts	0x0444, r24
    556a:	e0 93 25 04 	sts	0x0425, r30
    556e:	84 e6       	ldi	r24, 0x64	; 100
    5570:	90 e0       	ldi	r25, 0x00	; 0
    5572:	a0 e0       	ldi	r26, 0x00	; 0
    5574:	b0 e0       	ldi	r27, 0x00	; 0
    5576:	80 93 26 04 	sts	0x0426, r24
    557a:	90 93 27 04 	sts	0x0427, r25
    557e:	a0 93 28 04 	sts	0x0428, r26
    5582:	b0 93 29 04 	sts	0x0429, r27
    5586:	80 93 2a 04 	sts	0x042A, r24
    558a:	90 93 2b 04 	sts	0x042B, r25
    558e:	a0 93 2c 04 	sts	0x042C, r26
    5592:	b0 93 2d 04 	sts	0x042D, r27
    5596:	2b e2       	ldi	r18, 0x2B	; 43
    5598:	32 e0       	ldi	r19, 0x02	; 2
    559a:	30 93 2f 04 	sts	0x042F, r19
    559e:	20 93 2e 04 	sts	0x042E, r18
    55a2:	e0 93 30 04 	sts	0x0430, r30
    55a6:	80 93 31 04 	sts	0x0431, r24
    55aa:	90 93 32 04 	sts	0x0432, r25
    55ae:	a0 93 33 04 	sts	0x0433, r26
    55b2:	b0 93 34 04 	sts	0x0434, r27
    55b6:	80 93 35 04 	sts	0x0435, r24
    55ba:	90 93 36 04 	sts	0x0436, r25
    55be:	a0 93 37 04 	sts	0x0437, r26
    55c2:	b0 93 38 04 	sts	0x0438, r27
    55c6:	26 eb       	ldi	r18, 0xB6	; 182
    55c8:	38 e2       	ldi	r19, 0x28	; 40
    55ca:	30 93 3a 04 	sts	0x043A, r19
    55ce:	20 93 39 04 	sts	0x0439, r18
    55d2:	e0 93 46 04 	sts	0x0446, r30
    55d6:	0a e0       	ldi	r16, 0x0A	; 10
    55d8:	10 e0       	ldi	r17, 0x00	; 0
    55da:	20 e0       	ldi	r18, 0x00	; 0
    55dc:	30 e0       	ldi	r19, 0x00	; 0
    55de:	00 93 47 04 	sts	0x0447, r16
    55e2:	10 93 48 04 	sts	0x0448, r17
    55e6:	20 93 49 04 	sts	0x0449, r18
    55ea:	30 93 4a 04 	sts	0x044A, r19
    55ee:	00 93 4b 04 	sts	0x044B, r16
    55f2:	10 93 4c 04 	sts	0x044C, r17
    55f6:	20 93 4d 04 	sts	0x044D, r18
    55fa:	30 93 4e 04 	sts	0x044E, r19
    55fe:	28 e2       	ldi	r18, 0x28	; 40
    5600:	37 e0       	ldi	r19, 0x07	; 7
    5602:	30 93 50 04 	sts	0x0450, r19
    5606:	20 93 4f 04 	sts	0x044F, r18
    560a:	e0 93 51 04 	sts	0x0451, r30
    560e:	80 93 52 04 	sts	0x0452, r24
    5612:	90 93 53 04 	sts	0x0453, r25
    5616:	a0 93 54 04 	sts	0x0454, r26
    561a:	b0 93 55 04 	sts	0x0455, r27
    561e:	80 93 56 04 	sts	0x0456, r24
    5622:	90 93 57 04 	sts	0x0457, r25
    5626:	a0 93 58 04 	sts	0x0458, r26
    562a:	b0 93 59 04 	sts	0x0459, r27
    562e:	89 ed       	ldi	r24, 0xD9	; 217
    5630:	92 e0       	ldi	r25, 0x02	; 2
    5632:	90 93 5b 04 	sts	0x045B, r25
    5636:	80 93 5a 04 	sts	0x045A, r24
    563a:	10 92 5f 04 	sts	0x045F, r1
    563e:	81 e0       	ldi	r24, 0x01	; 1
    5640:	80 93 60 04 	sts	0x0460, r24
    5644:	92 e0       	ldi	r25, 0x02	; 2
    5646:	90 93 61 04 	sts	0x0461, r25
    564a:	23 e0       	ldi	r18, 0x03	; 3
    564c:	20 93 62 04 	sts	0x0462, r18
    5650:	34 e0       	ldi	r19, 0x04	; 4
    5652:	30 93 63 04 	sts	0x0463, r19
    5656:	f5 e0       	ldi	r31, 0x05	; 5
    5658:	f0 93 64 04 	sts	0x0464, r31
    565c:	a6 e0       	ldi	r26, 0x06	; 6
    565e:	a0 93 65 04 	sts	0x0465, r26
    5662:	b7 e0       	ldi	r27, 0x07	; 7
    5664:	b0 93 66 04 	sts	0x0466, r27
    5668:	c8 e0       	ldi	r28, 0x08	; 8
    566a:	c0 93 67 04 	sts	0x0467, r28
    566e:	b0 93 68 04 	sts	0x0468, r27
    5672:	a0 93 69 04 	sts	0x0469, r26
    5676:	f0 93 6a 04 	sts	0x046A, r31
    567a:	30 93 6b 04 	sts	0x046B, r19
    567e:	20 93 6c 04 	sts	0x046C, r18
    5682:	90 93 6d 04 	sts	0x046D, r25
    5686:	80 93 6e 04 	sts	0x046E, r24
    568a:	20 e1       	ldi	r18, 0x10	; 16
    568c:	20 93 59 03 	sts	0x0359, r18
    5690:	ea bb       	out	0x1a, r30	; 26
    5692:	10 92 6f 04 	sts	0x046F, r1
    5696:	1b ba       	out	0x1b, r1	; 27
    5698:	2e ef       	ldi	r18, 0xFE	; 254
    569a:	27 bb       	out	0x17, r18	; 23
    569c:	80 93 7d 04 	sts	0x047D, r24
    56a0:	88 bb       	out	0x18, r24	; 24
    56a2:	e4 bb       	out	0x14, r30	; 20
    56a4:	10 92 73 04 	sts	0x0473, r1
    56a8:	15 ba       	out	0x15, r1	; 21
    56aa:	e1 bb       	out	0x11, r30	; 17
    56ac:	10 92 70 04 	sts	0x0470, r1
    56b0:	12 ba       	out	0x12, r1	; 18
    56b2:	10 92 5a 03 	sts	0x035A, r1
    56b6:	10 92 5b 03 	sts	0x035B, r1
    56ba:	10 92 5c 03 	sts	0x035C, r1
    56be:	10 92 5d 03 	sts	0x035D, r1
    56c2:	10 92 5e 03 	sts	0x035E, r1
    56c6:	10 92 5f 03 	sts	0x035F, r1
    56ca:	10 92 60 03 	sts	0x0360, r1
    56ce:	10 92 61 03 	sts	0x0361, r1
    56d2:	10 92 62 03 	sts	0x0362, r1
    56d6:	10 92 63 03 	sts	0x0363, r1
    56da:	10 92 64 03 	sts	0x0364, r1
    56de:	10 92 65 03 	sts	0x0365, r1
    56e2:	10 92 66 03 	sts	0x0366, r1
    56e6:	10 92 67 03 	sts	0x0367, r1
    56ea:	10 92 68 03 	sts	0x0368, r1
    56ee:	10 92 69 03 	sts	0x0369, r1
    56f2:	10 92 6a 03 	sts	0x036A, r1
    56f6:	10 92 6b 03 	sts	0x036B, r1
    56fa:	10 92 6c 03 	sts	0x036C, r1
    56fe:	10 92 6d 03 	sts	0x036D, r1
    5702:	10 92 6e 03 	sts	0x036E, r1
    5706:	10 92 6f 03 	sts	0x036F, r1
    570a:	10 92 70 03 	sts	0x0370, r1
    570e:	10 92 71 03 	sts	0x0371, r1
    5712:	10 92 72 03 	sts	0x0372, r1
    5716:	10 92 73 03 	sts	0x0373, r1
    571a:	10 92 74 03 	sts	0x0374, r1
    571e:	10 92 75 03 	sts	0x0375, r1
    5722:	10 92 76 03 	sts	0x0376, r1
    5726:	10 92 77 03 	sts	0x0377, r1
    572a:	10 92 78 03 	sts	0x0378, r1
    572e:	10 92 79 03 	sts	0x0379, r1
    5732:	10 92 7a 03 	sts	0x037A, r1
    5736:	10 92 7b 03 	sts	0x037B, r1
    573a:	10 92 7c 03 	sts	0x037C, r1
    573e:	10 92 7d 03 	sts	0x037D, r1
    5742:	10 92 7e 03 	sts	0x037E, r1
    5746:	10 92 7f 03 	sts	0x037F, r1
    574a:	10 92 80 03 	sts	0x0380, r1
    574e:	10 92 81 03 	sts	0x0381, r1
    5752:	10 92 82 03 	sts	0x0382, r1
    5756:	10 92 83 03 	sts	0x0383, r1
    575a:	10 92 84 03 	sts	0x0384, r1
    575e:	10 92 85 03 	sts	0x0385, r1
    5762:	10 92 86 03 	sts	0x0386, r1
    5766:	10 92 87 03 	sts	0x0387, r1
    576a:	10 92 88 03 	sts	0x0388, r1
    576e:	10 92 89 03 	sts	0x0389, r1
    5772:	10 92 8a 03 	sts	0x038A, r1
    5776:	10 92 8b 03 	sts	0x038B, r1
    577a:	10 92 8c 03 	sts	0x038C, r1
    577e:	10 92 8d 03 	sts	0x038D, r1
    5782:	10 92 8e 03 	sts	0x038E, r1
    5786:	10 92 8f 03 	sts	0x038F, r1
    578a:	10 92 90 03 	sts	0x0390, r1
    578e:	10 92 91 03 	sts	0x0391, r1
    5792:	10 92 92 03 	sts	0x0392, r1
    5796:	10 92 93 03 	sts	0x0393, r1
    579a:	10 92 94 03 	sts	0x0394, r1
    579e:	10 92 95 03 	sts	0x0395, r1
    57a2:	10 92 96 03 	sts	0x0396, r1
    57a6:	10 92 97 03 	sts	0x0397, r1
    57aa:	10 92 98 03 	sts	0x0398, r1
    57ae:	10 92 99 03 	sts	0x0399, r1
    57b2:	10 92 9a 03 	sts	0x039A, r1
    57b6:	10 92 9b 03 	sts	0x039B, r1
    57ba:	10 92 9c 03 	sts	0x039C, r1
    57be:	10 92 9d 03 	sts	0x039D, r1
    57c2:	10 92 9e 03 	sts	0x039E, r1
    57c6:	10 92 9f 03 	sts	0x039F, r1
    57ca:	10 92 a0 03 	sts	0x03A0, r1
    57ce:	10 92 a1 03 	sts	0x03A1, r1
    57d2:	10 92 a2 03 	sts	0x03A2, r1
    57d6:	10 92 a3 03 	sts	0x03A3, r1
    57da:	10 92 a4 03 	sts	0x03A4, r1
    57de:	10 92 a5 03 	sts	0x03A5, r1
    57e2:	10 92 a6 03 	sts	0x03A6, r1
    57e6:	10 92 a7 03 	sts	0x03A7, r1
    57ea:	10 92 a8 03 	sts	0x03A8, r1
    57ee:	10 92 a9 03 	sts	0x03A9, r1
    57f2:	10 92 aa 03 	sts	0x03AA, r1
    57f6:	10 92 ab 03 	sts	0x03AB, r1
    57fa:	10 92 ac 03 	sts	0x03AC, r1
    57fe:	10 92 ad 03 	sts	0x03AD, r1
    5802:	10 92 ae 03 	sts	0x03AE, r1
    5806:	10 92 af 03 	sts	0x03AF, r1
    580a:	10 92 b0 03 	sts	0x03B0, r1
    580e:	10 92 b1 03 	sts	0x03B1, r1
    5812:	10 92 b2 03 	sts	0x03B2, r1
    5816:	10 92 b3 03 	sts	0x03B3, r1
    581a:	10 92 b4 03 	sts	0x03B4, r1
    581e:	10 92 b5 03 	sts	0x03B5, r1
    5822:	10 92 b6 03 	sts	0x03B6, r1
    5826:	10 92 b7 03 	sts	0x03B7, r1
    582a:	10 92 b8 03 	sts	0x03B8, r1
    582e:	10 92 b9 03 	sts	0x03B9, r1
    5832:	10 92 ba 03 	sts	0x03BA, r1
    5836:	10 92 bb 03 	sts	0x03BB, r1
    583a:	10 92 bc 03 	sts	0x03BC, r1
    583e:	10 92 bd 03 	sts	0x03BD, r1
    5842:	10 92 be 03 	sts	0x03BE, r1
    5846:	10 92 bf 03 	sts	0x03BF, r1
    584a:	10 92 c0 03 	sts	0x03C0, r1
    584e:	10 92 c1 03 	sts	0x03C1, r1
    5852:	10 92 c2 03 	sts	0x03C2, r1
    5856:	10 92 c3 03 	sts	0x03C3, r1
    585a:	10 92 c4 03 	sts	0x03C4, r1
    585e:	10 92 c5 03 	sts	0x03C5, r1
    5862:	10 92 c6 03 	sts	0x03C6, r1
    5866:	10 92 c7 03 	sts	0x03C7, r1
    586a:	10 92 c8 03 	sts	0x03C8, r1
    586e:	10 92 c9 03 	sts	0x03C9, r1
    5872:	10 92 ca 03 	sts	0x03CA, r1
    5876:	10 92 cb 03 	sts	0x03CB, r1
    587a:	10 92 cc 03 	sts	0x03CC, r1
    587e:	10 92 cd 03 	sts	0x03CD, r1
    5882:	10 92 ce 03 	sts	0x03CE, r1
    5886:	10 92 cf 03 	sts	0x03CF, r1
    588a:	10 92 d0 03 	sts	0x03D0, r1
    588e:	10 92 d1 03 	sts	0x03D1, r1
    5892:	10 92 d2 03 	sts	0x03D2, r1
    5896:	10 92 d3 03 	sts	0x03D3, r1
    589a:	10 92 d4 03 	sts	0x03D4, r1
    589e:	10 92 d5 03 	sts	0x03D5, r1
    58a2:	10 92 d6 03 	sts	0x03D6, r1
    58a6:	10 92 d7 03 	sts	0x03D7, r1
    58aa:	10 92 d8 03 	sts	0x03D8, r1
    58ae:	10 92 d9 03 	sts	0x03D9, r1
    58b2:	10 92 da 03 	sts	0x03DA, r1
    58b6:	10 92 db 03 	sts	0x03DB, r1
    58ba:	10 92 dc 03 	sts	0x03DC, r1
    58be:	10 92 dd 03 	sts	0x03DD, r1
    58c2:	10 92 de 03 	sts	0x03DE, r1
    58c6:	10 92 df 03 	sts	0x03DF, r1
    58ca:	10 92 e0 03 	sts	0x03E0, r1
    58ce:	10 92 e1 03 	sts	0x03E1, r1
    58d2:	10 92 e2 03 	sts	0x03E2, r1
    58d6:	10 92 e3 03 	sts	0x03E3, r1
    58da:	10 92 e4 03 	sts	0x03E4, r1
    58de:	10 92 e5 03 	sts	0x03E5, r1
    58e2:	10 92 e6 03 	sts	0x03E6, r1
    58e6:	10 92 e7 03 	sts	0x03E7, r1
    58ea:	10 92 e8 03 	sts	0x03E8, r1
    58ee:	10 92 e9 03 	sts	0x03E9, r1
    58f2:	10 92 ea 03 	sts	0x03EA, r1
    58f6:	10 92 eb 03 	sts	0x03EB, r1
    58fa:	10 92 ec 03 	sts	0x03EC, r1
    58fe:	10 92 ed 03 	sts	0x03ED, r1
    5902:	10 92 ee 03 	sts	0x03EE, r1
    5906:	10 92 ef 03 	sts	0x03EF, r1
    590a:	10 92 f0 03 	sts	0x03F0, r1
    590e:	10 92 f1 03 	sts	0x03F1, r1
    5912:	10 92 f2 03 	sts	0x03F2, r1
    5916:	10 92 f3 03 	sts	0x03F3, r1
    591a:	10 92 f4 03 	sts	0x03F4, r1
    591e:	10 92 f5 03 	sts	0x03F5, r1
    5922:	10 92 f6 03 	sts	0x03F6, r1
    5926:	10 92 f7 03 	sts	0x03F7, r1
    592a:	10 92 f8 03 	sts	0x03F8, r1
    592e:	10 92 f9 03 	sts	0x03F9, r1
    5932:	10 92 fa 03 	sts	0x03FA, r1
    5936:	10 92 fb 03 	sts	0x03FB, r1
    593a:	10 92 fc 03 	sts	0x03FC, r1
    593e:	10 92 fd 03 	sts	0x03FD, r1
    5942:	10 92 fe 03 	sts	0x03FE, r1
    5946:	10 92 ff 03 	sts	0x03FF, r1
    594a:	10 92 00 04 	sts	0x0400, r1
    594e:	10 92 01 04 	sts	0x0401, r1
    5952:	10 92 02 04 	sts	0x0402, r1
    5956:	10 92 03 04 	sts	0x0403, r1
    595a:	10 92 04 04 	sts	0x0404, r1
    595e:	10 92 05 04 	sts	0x0405, r1
    5962:	10 92 06 04 	sts	0x0406, r1
    5966:	10 92 07 04 	sts	0x0407, r1
    596a:	10 92 08 04 	sts	0x0408, r1
    596e:	10 92 09 04 	sts	0x0409, r1
    5972:	10 92 0a 04 	sts	0x040A, r1
    5976:	10 92 0b 04 	sts	0x040B, r1
    597a:	10 92 0c 04 	sts	0x040C, r1
    597e:	10 92 0d 04 	sts	0x040D, r1
    5982:	10 92 0e 04 	sts	0x040E, r1
    5986:	10 92 0f 04 	sts	0x040F, r1
    598a:	10 92 10 04 	sts	0x0410, r1
    598e:	10 92 11 04 	sts	0x0411, r1
    5992:	10 92 12 04 	sts	0x0412, r1
    5996:	10 92 13 04 	sts	0x0413, r1
    599a:	10 92 14 04 	sts	0x0414, r1
    599e:	10 92 15 04 	sts	0x0415, r1
    59a2:	10 92 16 04 	sts	0x0416, r1
    59a6:	10 92 17 04 	sts	0x0417, r1
    59aa:	10 92 18 04 	sts	0x0418, r1
    59ae:	10 92 19 04 	sts	0x0419, r1
    59b2:	40 93 46 01 	sts	0x0146, r20
    59b6:	50 93 47 01 	sts	0x0147, r21
    59ba:	60 93 48 01 	sts	0x0148, r22
    59be:	70 93 49 01 	sts	0x0149, r23
    59c2:	8b e0       	ldi	r24, 0x0B	; 11
    59c4:	83 bf       	out	0x33, r24	; 51
    59c6:	89 e1       	ldi	r24, 0x19	; 25
    59c8:	8c bf       	out	0x3c, r24	; 60
    59ca:	99 bf       	out	0x39, r25	; 57
    59cc:	12 be       	out	0x32, r1	; 50
    59ce:	40 93 48 03 	sts	0x0348, r20
    59d2:	50 93 49 03 	sts	0x0349, r21
    59d6:	60 93 4a 03 	sts	0x034A, r22
    59da:	70 93 4b 03 	sts	0x034B, r23
    59de:	8f b7       	in	r24, 0x3f	; 63
    59e0:	80 68       	ori	r24, 0x80	; 128
    59e2:	8f bf       	out	0x3f, r24	; 63
    59e4:	10 e0       	ldi	r17, 0x00	; 0
    59e6:	16 30       	cpi	r17, 0x06	; 6
    59e8:	88 f5       	brcc	.+98     	; 0x5a4c <main+0x56c>
    59ea:	e1 2e       	mov	r14, r17
    59ec:	ff 24       	eor	r15, r15
    59ee:	67 01       	movw	r12, r14
    59f0:	cc 0c       	add	r12, r12
    59f2:	dd 1c       	adc	r13, r13
    59f4:	57 01       	movw	r10, r14
    59f6:	aa 0c       	add	r10, r10
    59f8:	bb 1c       	adc	r11, r11
    59fa:	aa 0c       	add	r10, r10
    59fc:	bb 1c       	adc	r11, r11
    59fe:	aa 0c       	add	r10, r10
    5a00:	bb 1c       	adc	r11, r11
    5a02:	e6 01       	movw	r28, r12
    5a04:	ca 0d       	add	r28, r10
    5a06:	db 1d       	adc	r29, r11
    5a08:	ce 0d       	add	r28, r14
    5a0a:	df 1d       	adc	r29, r15
    5a0c:	c6 5e       	subi	r28, 0xE6	; 230
    5a0e:	db 4f       	sbci	r29, 0xFB	; 251
    5a10:	8d 81       	ldd	r24, Y+5	; 0x05
    5a12:	9e 81       	ldd	r25, Y+6	; 0x06
    5a14:	af 81       	ldd	r26, Y+7	; 0x07
    5a16:	b8 85       	ldd	r27, Y+8	; 0x08
    5a18:	49 81       	ldd	r20, Y+1	; 0x01
    5a1a:	5a 81       	ldd	r21, Y+2	; 0x02
    5a1c:	6b 81       	ldd	r22, Y+3	; 0x03
    5a1e:	7c 81       	ldd	r23, Y+4	; 0x04
    5a20:	84 17       	cp	r24, r20
    5a22:	95 07       	cpc	r25, r21
    5a24:	a6 07       	cpc	r26, r22
    5a26:	b7 07       	cpc	r27, r23
    5a28:	c8 f4       	brcc	.+50     	; 0x5a5c <main+0x57c>
    5a2a:	01 96       	adiw	r24, 0x01	; 1
    5a2c:	a1 1d       	adc	r26, r1
    5a2e:	b1 1d       	adc	r27, r1
    5a30:	f6 01       	movw	r30, r12
    5a32:	ea 0d       	add	r30, r10
    5a34:	fb 1d       	adc	r31, r11
    5a36:	ee 0d       	add	r30, r14
    5a38:	ff 1d       	adc	r31, r15
    5a3a:	e6 5e       	subi	r30, 0xE6	; 230
    5a3c:	fb 4f       	sbci	r31, 0xFB	; 251
    5a3e:	85 83       	std	Z+5, r24	; 0x05
    5a40:	96 83       	std	Z+6, r25	; 0x06
    5a42:	a7 83       	std	Z+7, r26	; 0x07
    5a44:	b0 87       	std	Z+8, r27	; 0x08
    5a46:	1f 5f       	subi	r17, 0xFF	; 255
    5a48:	16 30       	cpi	r17, 0x06	; 6
    5a4a:	78 f2       	brcs	.-98     	; 0x59ea <main+0x50a>
    5a4c:	80 91 4c 03 	lds	r24, 0x034C
    5a50:	88 23       	and	r24, r24
    5a52:	e1 f3       	breq	.-8      	; 0x5a4c <main+0x56c>
    5a54:	10 92 4c 03 	sts	0x034C, r1
    5a58:	10 e0       	ldi	r17, 0x00	; 0
    5a5a:	c7 cf       	rjmp	.-114    	; 0x59ea <main+0x50a>
    5a5c:	e9 85       	ldd	r30, Y+9	; 0x09
    5a5e:	fa 85       	ldd	r31, Y+10	; 0x0a
    5a60:	88 81       	ld	r24, Y
    5a62:	09 95       	icall
    5a64:	88 83       	st	Y, r24
    5a66:	81 e0       	ldi	r24, 0x01	; 1
    5a68:	90 e0       	ldi	r25, 0x00	; 0
    5a6a:	a0 e0       	ldi	r26, 0x00	; 0
    5a6c:	b0 e0       	ldi	r27, 0x00	; 0
    5a6e:	e0 cf       	rjmp	.-64     	; 0x5a30 <main+0x550>

00005a70 <__divmodqi4>:
    5a70:	87 fb       	bst	r24, 7
    5a72:	08 2e       	mov	r0, r24
    5a74:	06 26       	eor	r0, r22
    5a76:	87 fd       	sbrc	r24, 7
    5a78:	81 95       	neg	r24
    5a7a:	67 fd       	sbrc	r22, 7
    5a7c:	61 95       	neg	r22
    5a7e:	2c d0       	rcall	.+88     	; 0x5ad8 <__udivmodqi4>
    5a80:	0e f4       	brtc	.+2      	; 0x5a84 <__divmodqi4_1>
    5a82:	91 95       	neg	r25

00005a84 <__divmodqi4_1>:
    5a84:	07 fc       	sbrc	r0, 7
    5a86:	81 95       	neg	r24

00005a88 <__divmodqi4_exit>:
    5a88:	08 95       	ret

00005a8a <__udivmodhi4>:
    5a8a:	aa 1b       	sub	r26, r26
    5a8c:	bb 1b       	sub	r27, r27
    5a8e:	51 e1       	ldi	r21, 0x11	; 17
    5a90:	07 c0       	rjmp	.+14     	; 0x5aa0 <__udivmodhi4_ep>

00005a92 <__udivmodhi4_loop>:
    5a92:	aa 1f       	adc	r26, r26
    5a94:	bb 1f       	adc	r27, r27
    5a96:	a6 17       	cp	r26, r22
    5a98:	b7 07       	cpc	r27, r23
    5a9a:	10 f0       	brcs	.+4      	; 0x5aa0 <__udivmodhi4_ep>
    5a9c:	a6 1b       	sub	r26, r22
    5a9e:	b7 0b       	sbc	r27, r23

00005aa0 <__udivmodhi4_ep>:
    5aa0:	88 1f       	adc	r24, r24
    5aa2:	99 1f       	adc	r25, r25
    5aa4:	5a 95       	dec	r21
    5aa6:	a9 f7       	brne	.-22     	; 0x5a92 <__udivmodhi4_loop>
    5aa8:	80 95       	com	r24
    5aaa:	90 95       	com	r25
    5aac:	bc 01       	movw	r22, r24
    5aae:	cd 01       	movw	r24, r26
    5ab0:	08 95       	ret

00005ab2 <__divmodhi4>:
    5ab2:	97 fb       	bst	r25, 7
    5ab4:	09 2e       	mov	r0, r25
    5ab6:	07 26       	eor	r0, r23
    5ab8:	0a d0       	rcall	.+20     	; 0x5ace <__divmodhi4_neg1>
    5aba:	77 fd       	sbrc	r23, 7
    5abc:	04 d0       	rcall	.+8      	; 0x5ac6 <__divmodhi4_neg2>
    5abe:	e5 df       	rcall	.-54     	; 0x5a8a <__udivmodhi4>
    5ac0:	06 d0       	rcall	.+12     	; 0x5ace <__divmodhi4_neg1>
    5ac2:	00 20       	and	r0, r0
    5ac4:	1a f4       	brpl	.+6      	; 0x5acc <__divmodhi4_exit>

00005ac6 <__divmodhi4_neg2>:
    5ac6:	70 95       	com	r23
    5ac8:	61 95       	neg	r22
    5aca:	7f 4f       	sbci	r23, 0xFF	; 255

00005acc <__divmodhi4_exit>:
    5acc:	08 95       	ret

00005ace <__divmodhi4_neg1>:
    5ace:	f6 f7       	brtc	.-4      	; 0x5acc <__divmodhi4_exit>
    5ad0:	90 95       	com	r25
    5ad2:	81 95       	neg	r24
    5ad4:	9f 4f       	sbci	r25, 0xFF	; 255
    5ad6:	08 95       	ret

00005ad8 <__udivmodqi4>:
    5ad8:	99 1b       	sub	r25, r25
    5ada:	79 e0       	ldi	r23, 0x09	; 9
    5adc:	04 c0       	rjmp	.+8      	; 0x5ae6 <__udivmodqi4_ep>

00005ade <__udivmodqi4_loop>:
    5ade:	99 1f       	adc	r25, r25
    5ae0:	96 17       	cp	r25, r22
    5ae2:	08 f0       	brcs	.+2      	; 0x5ae6 <__udivmodqi4_ep>
    5ae4:	96 1b       	sub	r25, r22

00005ae6 <__udivmodqi4_ep>:
    5ae6:	88 1f       	adc	r24, r24
    5ae8:	7a 95       	dec	r23
    5aea:	c9 f7       	brne	.-14     	; 0x5ade <__udivmodqi4_loop>
    5aec:	80 95       	com	r24
    5aee:	08 95       	ret

00005af0 <do_rand>:
    5af0:	8f 92       	push	r8
    5af2:	9f 92       	push	r9
    5af4:	af 92       	push	r10
    5af6:	bf 92       	push	r11
    5af8:	cf 92       	push	r12
    5afa:	df 92       	push	r13
    5afc:	ef 92       	push	r14
    5afe:	ff 92       	push	r15
    5b00:	cf 93       	push	r28
    5b02:	df 93       	push	r29
    5b04:	ec 01       	movw	r28, r24
    5b06:	88 81       	ld	r24, Y
    5b08:	99 81       	ldd	r25, Y+1	; 0x01
    5b0a:	aa 81       	ldd	r26, Y+2	; 0x02
    5b0c:	bb 81       	ldd	r27, Y+3	; 0x03
    5b0e:	00 97       	sbiw	r24, 0x00	; 0
    5b10:	a1 05       	cpc	r26, r1
    5b12:	b1 05       	cpc	r27, r1
    5b14:	21 f4       	brne	.+8      	; 0x5b1e <do_rand+0x2e>
    5b16:	84 e2       	ldi	r24, 0x24	; 36
    5b18:	99 ed       	ldi	r25, 0xD9	; 217
    5b1a:	ab e5       	ldi	r26, 0x5B	; 91
    5b1c:	b7 e0       	ldi	r27, 0x07	; 7
    5b1e:	bc 01       	movw	r22, r24
    5b20:	cd 01       	movw	r24, r26
    5b22:	2d e1       	ldi	r18, 0x1D	; 29
    5b24:	33 ef       	ldi	r19, 0xF3	; 243
    5b26:	41 e0       	ldi	r20, 0x01	; 1
    5b28:	50 e0       	ldi	r21, 0x00	; 0
    5b2a:	0e 94 0c 2e 	call	0x5c18	; 0x5c18 <__divmodsi4>
    5b2e:	49 01       	movw	r8, r18
    5b30:	5a 01       	movw	r10, r20
    5b32:	27 ea       	ldi	r18, 0xA7	; 167
    5b34:	31 e4       	ldi	r19, 0x41	; 65
    5b36:	40 e0       	ldi	r20, 0x00	; 0
    5b38:	50 e0       	ldi	r21, 0x00	; 0
    5b3a:	0e 94 ed 2d 	call	0x5bda	; 0x5bda <__mulsi3>
    5b3e:	6b 01       	movw	r12, r22
    5b40:	7c 01       	movw	r14, r24
    5b42:	c5 01       	movw	r24, r10
    5b44:	b4 01       	movw	r22, r8
    5b46:	2c ee       	ldi	r18, 0xEC	; 236
    5b48:	34 ef       	ldi	r19, 0xF4	; 244
    5b4a:	4f ef       	ldi	r20, 0xFF	; 255
    5b4c:	5f ef       	ldi	r21, 0xFF	; 255
    5b4e:	0e 94 ed 2d 	call	0x5bda	; 0x5bda <__mulsi3>
    5b52:	dc 01       	movw	r26, r24
    5b54:	cb 01       	movw	r24, r22
    5b56:	c8 0e       	add	r12, r24
    5b58:	d9 1e       	adc	r13, r25
    5b5a:	ea 1e       	adc	r14, r26
    5b5c:	fb 1e       	adc	r15, r27
    5b5e:	f7 fe       	sbrs	r15, 7
    5b60:	08 c0       	rjmp	.+16     	; 0x5b72 <do_rand+0x82>
    5b62:	8f ef       	ldi	r24, 0xFF	; 255
    5b64:	9f ef       	ldi	r25, 0xFF	; 255
    5b66:	af ef       	ldi	r26, 0xFF	; 255
    5b68:	bf e7       	ldi	r27, 0x7F	; 127
    5b6a:	c8 0e       	add	r12, r24
    5b6c:	d9 1e       	adc	r13, r25
    5b6e:	ea 1e       	adc	r14, r26
    5b70:	fb 1e       	adc	r15, r27
    5b72:	c8 82       	st	Y, r12
    5b74:	d9 82       	std	Y+1, r13	; 0x01
    5b76:	ea 82       	std	Y+2, r14	; 0x02
    5b78:	fb 82       	std	Y+3, r15	; 0x03
    5b7a:	c6 01       	movw	r24, r12
    5b7c:	9f 77       	andi	r25, 0x7F	; 127
    5b7e:	df 91       	pop	r29
    5b80:	cf 91       	pop	r28
    5b82:	ff 90       	pop	r15
    5b84:	ef 90       	pop	r14
    5b86:	df 90       	pop	r13
    5b88:	cf 90       	pop	r12
    5b8a:	bf 90       	pop	r11
    5b8c:	af 90       	pop	r10
    5b8e:	9f 90       	pop	r9
    5b90:	8f 90       	pop	r8
    5b92:	08 95       	ret

00005b94 <rand_r>:
    5b94:	0e 94 78 2d 	call	0x5af0	; 0x5af0 <do_rand>
    5b98:	08 95       	ret

00005b9a <rand>:
    5b9a:	8d e4       	ldi	r24, 0x4D	; 77
    5b9c:	91 e0       	ldi	r25, 0x01	; 1
    5b9e:	0e 94 78 2d 	call	0x5af0	; 0x5af0 <do_rand>
    5ba2:	08 95       	ret

00005ba4 <srand>:
    5ba4:	a0 e0       	ldi	r26, 0x00	; 0
    5ba6:	b0 e0       	ldi	r27, 0x00	; 0
    5ba8:	80 93 4d 01 	sts	0x014D, r24
    5bac:	90 93 4e 01 	sts	0x014E, r25
    5bb0:	a0 93 4f 01 	sts	0x014F, r26
    5bb4:	b0 93 50 01 	sts	0x0150, r27
    5bb8:	08 95       	ret

00005bba <memcpy_P>:
    5bba:	fb 01       	movw	r30, r22
    5bbc:	dc 01       	movw	r26, r24
    5bbe:	02 c0       	rjmp	.+4      	; 0x5bc4 <memcpy_P+0xa>
    5bc0:	05 90       	lpm	r0, Z+
    5bc2:	0d 92       	st	X+, r0
    5bc4:	41 50       	subi	r20, 0x01	; 1
    5bc6:	50 40       	sbci	r21, 0x00	; 0
    5bc8:	d8 f7       	brcc	.-10     	; 0x5bc0 <memcpy_P+0x6>
    5bca:	08 95       	ret

00005bcc <strcpy>:
    5bcc:	fb 01       	movw	r30, r22
    5bce:	dc 01       	movw	r26, r24
    5bd0:	01 90       	ld	r0, Z+
    5bd2:	0d 92       	st	X+, r0
    5bd4:	00 20       	and	r0, r0
    5bd6:	e1 f7       	brne	.-8      	; 0x5bd0 <strcpy+0x4>
    5bd8:	08 95       	ret

00005bda <__mulsi3>:
    5bda:	62 9f       	mul	r22, r18
    5bdc:	d0 01       	movw	r26, r0
    5bde:	73 9f       	mul	r23, r19
    5be0:	f0 01       	movw	r30, r0
    5be2:	82 9f       	mul	r24, r18
    5be4:	e0 0d       	add	r30, r0
    5be6:	f1 1d       	adc	r31, r1
    5be8:	64 9f       	mul	r22, r20
    5bea:	e0 0d       	add	r30, r0
    5bec:	f1 1d       	adc	r31, r1
    5bee:	92 9f       	mul	r25, r18
    5bf0:	f0 0d       	add	r31, r0
    5bf2:	83 9f       	mul	r24, r19
    5bf4:	f0 0d       	add	r31, r0
    5bf6:	74 9f       	mul	r23, r20
    5bf8:	f0 0d       	add	r31, r0
    5bfa:	65 9f       	mul	r22, r21
    5bfc:	f0 0d       	add	r31, r0
    5bfe:	99 27       	eor	r25, r25
    5c00:	72 9f       	mul	r23, r18
    5c02:	b0 0d       	add	r27, r0
    5c04:	e1 1d       	adc	r30, r1
    5c06:	f9 1f       	adc	r31, r25
    5c08:	63 9f       	mul	r22, r19
    5c0a:	b0 0d       	add	r27, r0
    5c0c:	e1 1d       	adc	r30, r1
    5c0e:	f9 1f       	adc	r31, r25
    5c10:	bd 01       	movw	r22, r26
    5c12:	cf 01       	movw	r24, r30
    5c14:	11 24       	eor	r1, r1
    5c16:	08 95       	ret

00005c18 <__divmodsi4>:
    5c18:	97 fb       	bst	r25, 7
    5c1a:	09 2e       	mov	r0, r25
    5c1c:	05 26       	eor	r0, r21
    5c1e:	0e d0       	rcall	.+28     	; 0x5c3c <__divmodsi4_neg1>
    5c20:	57 fd       	sbrc	r21, 7
    5c22:	04 d0       	rcall	.+8      	; 0x5c2c <__divmodsi4_neg2>
    5c24:	14 d0       	rcall	.+40     	; 0x5c4e <__udivmodsi4>
    5c26:	0a d0       	rcall	.+20     	; 0x5c3c <__divmodsi4_neg1>
    5c28:	00 1c       	adc	r0, r0
    5c2a:	38 f4       	brcc	.+14     	; 0x5c3a <__divmodsi4_exit>

00005c2c <__divmodsi4_neg2>:
    5c2c:	50 95       	com	r21
    5c2e:	40 95       	com	r20
    5c30:	30 95       	com	r19
    5c32:	21 95       	neg	r18
    5c34:	3f 4f       	sbci	r19, 0xFF	; 255
    5c36:	4f 4f       	sbci	r20, 0xFF	; 255
    5c38:	5f 4f       	sbci	r21, 0xFF	; 255

00005c3a <__divmodsi4_exit>:
    5c3a:	08 95       	ret

00005c3c <__divmodsi4_neg1>:
    5c3c:	f6 f7       	brtc	.-4      	; 0x5c3a <__divmodsi4_exit>
    5c3e:	90 95       	com	r25
    5c40:	80 95       	com	r24
    5c42:	70 95       	com	r23
    5c44:	61 95       	neg	r22
    5c46:	7f 4f       	sbci	r23, 0xFF	; 255
    5c48:	8f 4f       	sbci	r24, 0xFF	; 255
    5c4a:	9f 4f       	sbci	r25, 0xFF	; 255
    5c4c:	08 95       	ret

00005c4e <__udivmodsi4>:
    5c4e:	a1 e2       	ldi	r26, 0x21	; 33
    5c50:	1a 2e       	mov	r1, r26
    5c52:	aa 1b       	sub	r26, r26
    5c54:	bb 1b       	sub	r27, r27
    5c56:	fd 01       	movw	r30, r26
    5c58:	0d c0       	rjmp	.+26     	; 0x5c74 <__udivmodsi4_ep>

00005c5a <__udivmodsi4_loop>:
    5c5a:	aa 1f       	adc	r26, r26
    5c5c:	bb 1f       	adc	r27, r27
    5c5e:	ee 1f       	adc	r30, r30
    5c60:	ff 1f       	adc	r31, r31
    5c62:	a2 17       	cp	r26, r18
    5c64:	b3 07       	cpc	r27, r19
    5c66:	e4 07       	cpc	r30, r20
    5c68:	f5 07       	cpc	r31, r21
    5c6a:	20 f0       	brcs	.+8      	; 0x5c74 <__udivmodsi4_ep>
    5c6c:	a2 1b       	sub	r26, r18
    5c6e:	b3 0b       	sbc	r27, r19
    5c70:	e4 0b       	sbc	r30, r20
    5c72:	f5 0b       	sbc	r31, r21

00005c74 <__udivmodsi4_ep>:
    5c74:	66 1f       	adc	r22, r22
    5c76:	77 1f       	adc	r23, r23
    5c78:	88 1f       	adc	r24, r24
    5c7a:	99 1f       	adc	r25, r25
    5c7c:	1a 94       	dec	r1
    5c7e:	69 f7       	brne	.-38     	; 0x5c5a <__udivmodsi4_loop>
    5c80:	60 95       	com	r22
    5c82:	70 95       	com	r23
    5c84:	80 95       	com	r24
    5c86:	90 95       	com	r25
    5c88:	9b 01       	movw	r18, r22
    5c8a:	ac 01       	movw	r20, r24
    5c8c:	bd 01       	movw	r22, r26
    5c8e:	cf 01       	movw	r24, r30
    5c90:	08 95       	ret

00005c92 <_exit>:
    5c92:	f8 94       	cli

00005c94 <__stop_program>:
    5c94:	ff cf       	rjmp	.-2      	; 0x5c94 <__stop_program>
